 kerberos

 Timestamp is 56a4be24 (Sun Jan 24 12:05:56 2016)

 Preferred load address is 0000000180000000

 Start         Length     Name                   Class
 0001:00000000 000000e6H .text$di                CODE
 0001:000000f0 0001999cH .text$mn                CODE
 0001:00019a90 00000012H .text$mn$00             CODE
 0001:00019ab0 000002f0H .text$x                 CODE
 0001:00019da0 00000043H .text$yd                CODE
 0002:00000000 00000238H .idata$5                DATA
 0002:00000238 00000008H .00cfg                  DATA
 0002:00000240 00000008H .CRT$XCA                DATA
 0002:00000248 00000038H .CRT$XCU                DATA
 0002:00000280 00000008H .CRT$XCZ                DATA
 0002:00000288 00000008H .CRT$XIA                DATA
 0002:00000290 00000018H .CRT$XIC                DATA
 0002:000002a8 00000008H .CRT$XIZ                DATA
 0002:000002b0 00000008H .CRT$XPA                DATA
 0002:000002b8 00000010H .CRT$XPX                DATA
 0002:000002c8 00000008H .CRT$XPXA               DATA
 0002:000002d0 00000008H .CRT$XPZ                DATA
 0002:000002d8 00000008H .CRT$XTA                DATA
 0002:000002e0 00000008H .CRT$XTZ                DATA
 0002:000002f0 0000ae19H .rdata                  DATA
 0002:0000b10c 00000088H .rdata$debug            DATA
 0002:0000b198 000001f4H .rdata$r                DATA
 0002:0000b390 00000008H .rtc$IAA                DATA
 0002:0000b398 00000008H .rtc$IZZ                DATA
 0002:0000b3a0 00000008H .rtc$TAA                DATA
 0002:0000b3a8 00000008H .rtc$TZZ                DATA
 0002:0000b3b0 000013c4H .xdata                  DATA
 0002:0000c778 000000ecH .xdata$x                DATA
 0002:0000c864 00000020H .didat$2                DATA
 0002:0000c884 00000020H .didat$3                DATA
 0002:0000c8a8 00000288H .didat$4                DATA
 0002:0000cb30 00001444H .didat$6                DATA
 0002:0000df78 00000288H .didat$7                DATA
 0002:0000e200 00000054H .edata                  DATA
 0002:0000e254 00000014H .idata$2                DATA
 0002:0000e268 00000014H .idata$3                DATA
 0002:0000e280 00000238H .idata$4                DATA
 0002:0000e4b8 00000534H .idata$6                DATA
 0003:00000000 00000fc8H .data                   DATA
 0003:00000fc8 000000a0H .data$r                 DATA
 0003:00001068 00000288H .didat$5                DATA
 0003:000012f0 000028e0H .bss                    DATA
 0004:00000000 00001704H .pdata                  DATA
 0005:00000000 00000058H .rsrc$01                DATA
 0005:00000060 00000180H .rsrc$02                DATA

  Address         Publics by Value              Rva+Base               Lib:Object

 0000:00000000       ___safe_se_handler_table   0000000000000000     <absolute>
 0000:00000000       ___safe_se_handler_count   0000000000000000     <absolute>
 0000:00000000       __guard_fids_table         0000000000000000     <absolute>
 0000:00000000       __guard_fids_count         0000000000000000     <absolute>
 0000:00000000       __guard_flags              0000000000000000     <absolute>
 0000:00000000       __ImageBase                0000000180000000     <linker-defined>
 0001:000001a0       ?New@?$Factory@VFunctionTemplate@v8@@@imp@Nan@@SA?AV?$Local@VFunctionTemplate@v8@@@v8@@P6AXAEBV?$FunctionCallbackInfo@VValue@v8@@@3@@ZV?$Local@VValue@v8@@@5@V?$Local@VSignature@v8@@@5@@Z 00000001800011a0 f i kerberos.obj
 0001:00000330       ?Wrap@ObjectWrap@Nan@@IEAAXV?$Local@VObject@v8@@@v8@@@Z 0000000180001330 f i kerberos.obj
 0001:00000410       ?Ref@ObjectWrap@Nan@@MEAAXXZ 0000000180001410 f i kerberos.obj
 0001:00000450       ?Unref@ObjectWrap@Nan@@MEAAXXZ 0000000180001450 f i kerberos.obj
 0001:00000500       ?WeakCallback@ObjectWrap@Nan@@CAXAEBV?$WeakCallbackInfo@VObjectWrap@Nan@@@v8@@@Z 0000000180001500 f i kerberos.obj
 0001:00000590       ??_GObjectWrap@Nan@@UEAAPEAXI@Z 0000000180001590 f i kerberos.obj
 0001:00000590       ??_GSecurityBufferDescriptor@@UEAAPEAXI@Z 0000000180001590 f i security_buffer_descriptor.obj
 0001:00000590       ??_GKerberos@@UEAAPEAXI@Z  0000000180001590 f i kerberos.obj
 0001:00000590       ??_EKerberos@@UEAAPEAXI@Z  0000000180001590 f i * CIL library *:* CIL module *
 0001:00000590       ??_GSecurityCredentials@@UEAAPEAXI@Z 0000000180001590 f i security_credentials.obj
 0001:00000590       ??_ESecurityCredentials@@UEAAPEAXI@Z 0000000180001590 f i * CIL library *:* CIL module *
 0001:00000590       ??_EObjectWrap@Nan@@UEAAPEAXI@Z 0000000180001590 f i * CIL library *:* CIL module *
 0001:00000590       ??_ESecurityBufferDescriptor@@UEAAPEAXI@Z 0000000180001590 f i * CIL library *:* CIL module *
 0001:00000620       ?Initialize@Kerberos@@SAXV?$Local@VObject@v8@@@v8@@@Z 0000000180001620 f   kerberos.obj
 0001:000007c0       ?New@Kerberos@@CAXAEBV?$FunctionCallbackInfo@VValue@v8@@@Nan@@@Z 00000001800017c0 f   kerberos.obj
 0001:00000860       ?init@@YAXV?$Local@VObject@v8@@@v8@@@Z 0000000180001860 f   kerberos.obj
 0001:000008b0       base64_encode              00000001800018b0 f   base64.obj
 0001:00000a10       base64_decode              0000000180001a10 f   base64.obj
 0001:00000ba0       ??_EWorker@@UEAAPEAXI@Z    0000000180001ba0 f i * CIL library *:* CIL module *
 0001:00000ba0       ??_GWorker@@UEAAPEAXI@Z    0000000180001ba0 f i worker.obj
 0001:00000bd0       printf                     0000000180001bd0 f i kerberos_sspi.obj
 0001:00000c20       _sspi_EncryptMessage       0000000180001c20 f   kerberos_sspi.obj
 0001:00000cb0       _sspi_QueryContextAttributes 0000000180001cb0 f   kerberos_sspi.obj
 0001:00000d40       ??_GSecurityBuffer@@UEAAPEAXI@Z 0000000180001d40 f i security_buffer.obj
 0001:00000d40       ??_ESecurityBuffer@@UEAAPEAXI@Z 0000000180001d40 f i * CIL library *:* CIL module *
 0001:00000d70       ??1SecurityBuffer@@UEAA@XZ 0000000180001d70 f   security_buffer.obj
 0001:00000e00       ?New@SecurityBuffer@@CAXAEBV?$FunctionCallbackInfo@VValue@v8@@@Nan@@@Z 0000000180001e00 f   security_buffer.obj
 0001:00001200       ?ToBuffer@SecurityBuffer@@SAXAEBV?$FunctionCallbackInfo@VValue@v8@@@Nan@@@Z 0000000180002200 f   security_buffer.obj
 0001:00001310       ?Initialize@SecurityBuffer@@SAXV?$Local@VObject@v8@@@v8@@@Z 0000000180002310 f   security_buffer.obj
 0001:00001530       ??$Unwrap@VSecurityCredentials@@@ObjectWrap@Nan@@SAPEAVSecurityCredentials@@V?$Local@VObject@v8@@@v8@@@Z 0000000180002530 f i security_context.obj
 0001:00001530       ??$Unwrap@VSecurityContext@@@ObjectWrap@Nan@@SAPEAVSecurityContext@@V?$Local@VObject@v8@@@v8@@@Z 0000000180002530 f i security_context.obj
 0001:00001530       ??$Unwrap@VSecurityBuffer@@@ObjectWrap@Nan@@SAPEAVSecurityBuffer@@V?$Local@VObject@v8@@@v8@@@Z 0000000180002530 f i security_buffer.obj
 0001:00001530       ??$Unwrap@VSecurityBufferDescriptor@@@ObjectWrap@Nan@@SAPEAVSecurityBufferDescriptor@@V?$Local@VObject@v8@@@v8@@@Z 0000000180002530 f i security_buffer_descriptor.obj
 0001:000015b0       ??0SecurityBufferDescriptor@@QEAA@AEBV?$Persistent@VArray@v8@@V?$NonCopyablePersistentTraits@VArray@v8@@@2@@Nan@@@Z 00000001800025b0 f   security_buffer_descriptor.obj
 0001:00001770       ?bufferSize@SecurityBufferDescriptor@@QEAA_KXZ 0000000180002770 f   security_buffer_descriptor.obj
 0001:00001930       ?toBuffer@SecurityBufferDescriptor@@QEAAPEADXZ 0000000180002930 f   security_buffer_descriptor.obj
 0001:00001a10       ?New@SecurityBufferDescriptor@@CAXAEBV?$FunctionCallbackInfo@VValue@v8@@@Nan@@@Z 0000000180002a10 f   security_buffer_descriptor.obj
 0001:00001ea0       ?ToBuffer@SecurityBufferDescriptor@@SAXAEBV?$FunctionCallbackInfo@VValue@v8@@@Nan@@@Z 0000000180002ea0 f   security_buffer_descriptor.obj
 0001:00001fc0       ?Initialize@SecurityBufferDescriptor@@SAXV?$Local@VObject@v8@@@v8@@@Z 0000000180002fc0 f   security_buffer_descriptor.obj
 0001:000022b0       ??0Callback@Nan@@QEAA@AEBV?$Local@VFunction@v8@@@v8@@@Z 00000001800032b0 f i security_context.obj
 0001:000023c0       ?SetAccessor@Nan@@YAXV?$Local@VObjectTemplate@v8@@@v8@@V?$Local@VString@v8@@@3@P6AX1AEBV?$PropertyCallbackInfo@VValue@v8@@@1@@ZP6AX1V?$Local@VValue@v8@@@3@AEBV?$PropertyCallbackInfo@X@1@@Z4W4AccessControl@3@W4PropertyAttribute@3@V?$Local@VAccessorSignature@v8@@@3@@Z 00000001800033c0 f i security_context.obj
 0001:00002500       ?Process@SecurityCredentials@@CAXPEAUuv_work_s@@@Z 0000000180003500 f   security_credentials.obj
 0001:00002850       ??_ESecurityContext@@UEAAPEAXI@Z 0000000180003850 f i * CIL library *:* CIL module *
 0001:00002850       ??_GSecurityContext@@UEAAPEAXI@Z 0000000180003850 f i security_context.obj
 0001:00002880       ??1SecurityContext@@UEAA@XZ 0000000180003880 f   security_context.obj
 0001:00002940       ?New@SecurityContext@@SAXAEBV?$FunctionCallbackInfo@VValue@v8@@@Nan@@@Z 0000000180003940 f   security_context.obj
 0001:00002e90       ?InitializeContext@SecurityContext@@SAXAEBV?$FunctionCallbackInfo@VValue@v8@@@Nan@@@Z 0000000180003e90 f   security_context.obj
 0001:00003350       ?PayloadGetter@SecurityContext@@SAXV?$Local@VString@v8@@@v8@@AEBV?$PropertyCallbackInfo@VValue@v8@@@Nan@@@Z 0000000180004350 f   security_context.obj
 0001:00003430       ?HasContextGetter@SecurityContext@@SAXV?$Local@VString@v8@@@v8@@AEBV?$PropertyCallbackInfo@VValue@v8@@@Nan@@@Z 0000000180004430 f   security_context.obj
 0001:00003730       ?InitalizeStep@SecurityContext@@SAXAEBV?$FunctionCallbackInfo@VValue@v8@@@Nan@@@Z 0000000180004730 f   security_context.obj
 0001:00003bc0       ?EncryptMessage@SecurityContext@@SAXAEBV?$FunctionCallbackInfo@VValue@v8@@@Nan@@@Z 0000000180004bc0 f   security_context.obj
 0001:00003fa0       ?DecryptMessage@SecurityContext@@SAXAEBV?$FunctionCallbackInfo@VValue@v8@@@Nan@@@Z 0000000180004fa0 f   security_context.obj
 0001:00004590       ?QueryContextAttributesA@SecurityContext@@SAXAEBV?$FunctionCallbackInfo@VValue@v8@@@Nan@@@Z 0000000180005590 f   security_context.obj
 0001:00004950       ?Initialize@SecurityContext@@SAXV?$Local@VObject@v8@@@v8@@@Z 0000000180005950 f   security_context.obj
 0001:000050b0       ?New@SecurityCredentials@@CAXAEBV?$FunctionCallbackInfo@VValue@v8@@@Nan@@@Z 00000001800060b0 f   security_credentials.obj
 0001:00005320       ?Aquire@SecurityCredentials@@SAXAEBV?$FunctionCallbackInfo@VValue@v8@@@Nan@@@Z 0000000180006320 f   security_credentials.obj
 0001:000059b0       ?Initialize@SecurityCredentials@@SAXV?$Local@VObject@v8@@@v8@@@Z 00000001800069b0 f   security_credentials.obj
 0001:00005cd0       ?After@SecurityCredentials@@CAXPEAUuv_work_s@@@Z 0000000180006cd0 f   security_credentials.obj
 0001:0000606c       __imp_load_node_module_register 000000018000706c f   node:node.exe
 0001:00006078       __tailMerge_node_exe       0000000180007078 f i node:node.exe
 0001:000060f1       __imp_load_?ToLocalEmpty@V8@v8@@CAXXZ 00000001800070f1 f   node:node.exe
 0001:000060fd       __imp_load_?ClearWeak@V8@v8@@CAPEAXPEAPEAVObject@internal@2@@Z 00000001800070fd f   node:node.exe
 0001:00006109       __imp_load_?MakeWeak@V8@v8@@CAXPEAPEAVObject@internal@2@PEAXP6AXAEBV?$WeakCallbackInfo@X@2@@ZW4WeakCallbackType@2@@Z 0000000180007109 f   node:node.exe
 0001:00006115       __imp_load_?DisposeGlobal@V8@v8@@CAXPEAPEAVObject@internal@2@@Z 0000000180007115 f   node:node.exe
 0001:00006121       __imp_load_?GlobalizeReference@V8@v8@@CAPEAPEAVObject@internal@2@PEAVIsolate@42@PEAPEAV342@@Z 0000000180007121 f   node:node.exe
 0001:0000612d       __imp_load_?Escape@EscapableHandleScope@v8@@AEAAPEAPEAVObject@internal@2@PEAPEAV342@@Z 000000018000712d f   node:node.exe
 0001:00006139       __imp_load_??0EscapableHandleScope@v8@@QEAA@PEAVIsolate@1@@Z 0000000180007139 f   node:node.exe
 0001:00006145       __imp_load_?SetClassName@FunctionTemplate@v8@@QEAAXV?$Local@VString@v8@@@2@@Z 0000000180007145 f   node:node.exe
 0001:00006151       __imp_load_?InstanceTemplate@FunctionTemplate@v8@@QEAA?AV?$Local@VObjectTemplate@v8@@@2@XZ 0000000180007151 f   node:node.exe
 0001:0000615d       __imp_load_?GetFunction@FunctionTemplate@v8@@QEAA?AV?$Local@VFunction@v8@@@2@XZ 000000018000715d f   node:node.exe
 0001:00006169       __imp_load_?New@FunctionTemplate@v8@@SA?AV?$Local@VFunctionTemplate@v8@@@2@PEAVIsolate@2@P6AXAEBV?$FunctionCallbackInfo@VValue@v8@@@2@@ZV?$Local@VValue@v8@@@2@V?$Local@VSignature@v8@@@2@H@Z 0000000180007169 f   node:node.exe
 0001:00006175       __imp_load_?NewFromUtf8@String@v8@@SA?AV?$MaybeLocal@VString@v8@@@2@PEAVIsolate@2@PEBDW4NewStringType@2@H@Z 0000000180007175 f   node:node.exe
 0001:00006181       __imp_load_?CreateHandle@HandleScope@v8@@KAPEAPEAVObject@internal@2@PEAVIsolate@42@PEAV342@@Z 0000000180007181 f   node:node.exe
 0001:0000618d       __imp_load_?CreateHandle@HandleScope@v8@@CAPEAPEAVObject@internal@2@PEAVHeapObject@42@PEAV342@@Z 000000018000718d f   node:node.exe
 0001:00006199       __imp_load_??1HandleScope@v8@@QEAA@XZ 0000000180007199 f   node:node.exe
 0001:000061a5       __imp_load_??0HandleScope@v8@@QEAA@PEAVIsolate@1@@Z 00000001800071a5 f   node:node.exe
 0001:000061b1       __imp_load_?SlowGetInternalField@Object@v8@@AEAA?AV?$Local@VValue@v8@@@2@H@Z 00000001800071b1 f   node:node.exe
 0001:000061bd       __imp_load_?SetAlignedPointerInInternalField@Object@v8@@QEAAXHPEAX@Z 00000001800071bd f   node:node.exe
 0001:000061c9       __imp_load_?SetInternalField@Object@v8@@QEAAXHV?$Local@VValue@v8@@@2@@Z 00000001800071c9 f   node:node.exe
 0001:000061d5       __imp_load_?InternalFieldCount@Object@v8@@QEAAHXZ 00000001800071d5 f   node:node.exe
 0001:000061e1       __imp_load_?Set@Object@v8@@QEAA?AV?$Maybe@_N@2@V?$Local@VContext@v8@@@2@V?$Local@VValue@v8@@@2@1@Z 00000001800071e1 f   node:node.exe
 0001:000061ed       __imp_load_?SetInternalFieldCount@ObjectTemplate@v8@@QEAAXH@Z 00000001800071ed f   node:node.exe
 0001:000061f9       __imp_load_?NewInstance@ObjectTemplate@v8@@QEAA?AV?$MaybeLocal@VObject@v8@@@2@V?$Local@VContext@v8@@@2@@Z 00000001800071f9 f   node:node.exe
 0001:00006205       __imp_load_?New@ObjectTemplate@v8@@SA?AV?$Local@VObjectTemplate@v8@@@2@PEAVIsolate@2@V?$Local@VFunctionTemplate@v8@@@2@@Z 0000000180007205 f   node:node.exe
 0001:00006211       __imp_load_?GetCurrentContext@Isolate@v8@@QEAA?AV?$Local@VContext@v8@@@2@XZ 0000000180007211 f   node:node.exe
 0001:0000621d       __imp_load_?GetCurrent@Isolate@v8@@SAPEAV12@XZ 000000018000721d f   node:node.exe
 0001:00006229       __imp_load_?Value@External@v8@@QEBAPEAXXZ 0000000180007229 f   node:node.exe
 0001:00006235       __imp_load_?New@External@v8@@SA?AV?$Local@VExternal@v8@@@2@PEAVIsolate@2@PEAX@Z 0000000180007235 f   node:node.exe
 0001:00006241       __imp_load_?Length@Buffer@node@@YA_KV?$Local@VObject@v8@@@v8@@@Z 0000000180007241 f   node:node.exe
 0001:0000624d       __imp_load_?Data@Buffer@node@@YAPEADV?$Local@VObject@v8@@@v8@@@Z 000000018000724d f   node:node.exe
 0001:00006259       __imp_load_?HasInstance@Buffer@node@@YA_NV?$Local@VValue@v8@@@v8@@@Z 0000000180007259 f   node:node.exe
 0001:00006265       __imp_load_?Copy@Buffer@node@@YA?AV?$MaybeLocal@VObject@v8@@@v8@@PEAVIsolate@4@PEBD_K@Z 0000000180007265 f   node:node.exe
 0001:00006271       __imp_load_?New@Signature@v8@@SA?AV?$Local@VSignature@v8@@@2@PEAVIsolate@2@V?$Local@VFunctionTemplate@v8@@@2@@Z 0000000180007271 f   node:node.exe
 0001:0000627d       __imp_load_?IsInt32@Value@v8@@QEBA_NXZ 000000018000727d f   node:node.exe
 0001:00006289       __imp_load_?PrototypeTemplate@FunctionTemplate@v8@@QEAA?AV?$Local@VObjectTemplate@v8@@@2@XZ 0000000180007289 f   node:node.exe
 0001:00006295       __imp_load_?GetFunction@FunctionTemplate@v8@@QEAA?AV?$MaybeLocal@VFunction@v8@@@2@V?$Local@VContext@v8@@@2@@Z 0000000180007295 f   node:node.exe
 0001:000062a1       __imp_load_?Error@Exception@v8@@SA?AV?$Local@VValue@v8@@@2@V?$Local@VString@v8@@@2@@Z 00000001800072a1 f   node:node.exe
 0001:000062ad       __imp_load_?SlowGetAlignedPointerFromInternalField@Object@v8@@AEAAPEAXH@Z 00000001800072ad f   node:node.exe
 0001:000062b9       __imp_load_?ForceSet@Object@v8@@QEAA_NV?$Local@VValue@v8@@@2@0W4PropertyAttribute@2@@Z 00000001800072b9 f   node:node.exe
 0001:000062c5       __imp_load_?Set@Template@v8@@QEAAXV?$Local@VName@v8@@@2@V?$Local@VData@v8@@@2@W4PropertyAttribute@2@@Z 00000001800072c5 f   node:node.exe
 0001:000062d1       __imp_load_?SetName@Function@v8@@QEAAXV?$Local@VString@v8@@@2@@Z 00000001800072d1 f   node:node.exe
 0001:000062dd       __imp_load_?Value@Uint32@v8@@QEBAIXZ 00000001800072dd f   node:node.exe
 0001:000062e9       __imp_load_?ThrowException@Isolate@v8@@QEAA?AV?$Local@VValue@v8@@@2@V32@@Z 00000001800072e9 f   node:node.exe
 0001:000062f5       __imp_load_?ToUint32@Value@v8@@QEBA?AV?$Local@VUint32@v8@@@2@XZ 00000001800072f5 f   node:node.exe
 0001:00006301       __imp_load_?ToObject@Value@v8@@QEBA?AV?$Local@VObject@v8@@@2@XZ 0000000180007301 f   node:node.exe
 0001:0000630d       __imp_load_?ToInt32@Value@v8@@QEBA?AV?$MaybeLocal@VInt32@v8@@@2@V?$Local@VContext@v8@@@2@@Z 000000018000730d f   node:node.exe
 0001:00006319       __imp_load_?IsObject@Value@v8@@QEBA_NXZ 0000000180007319 f   node:node.exe
 0001:00006325       __imp_load_?IsArray@Value@v8@@QEBA_NXZ 0000000180007325 f   node:node.exe
 0001:00006331       __imp_load_?HasInstance@FunctionTemplate@v8@@QEAA_NV?$Local@VValue@v8@@@2@@Z 0000000180007331 f   node:node.exe
 0001:0000633d       __imp_load_?New@Array@v8@@SA?AV?$Local@VArray@v8@@@2@PEAVIsolate@2@H@Z 000000018000733d f   node:node.exe
 0001:00006349       __imp_load_?Length@Array@v8@@QEBAIXZ 0000000180007349 f   node:node.exe
 0001:00006355       __imp_load_?Get@Object@v8@@QEAA?AV?$Local@VValue@v8@@@2@I@Z 0000000180007355 f   node:node.exe
 0001:00006361       __imp_load_?Set@Object@v8@@QEAA_NIV?$Local@VValue@v8@@@2@@Z 0000000180007361 f   node:node.exe
 0001:0000636d       __imp_load_?New@Integer@v8@@SA?AV?$Local@VInteger@v8@@@2@PEAVIsolate@2@H@Z 000000018000736d f   node:node.exe
 0001:00006379       __imp_load_?NewInstance@Function@v8@@QEBA?AV?$Local@VObject@v8@@@2@HQEAV?$Local@VValue@v8@@@2@@Z 0000000180007379 f   node:node.exe
 0001:00006385       __imp_load_?FatalException@node@@YAXPEAVIsolate@v8@@AEBVTryCatch@3@@Z 0000000180007385 f   node:node.exe
 0001:00006391       __imp_load_?MakeCallback@node@@YA?AV?$Local@VValue@v8@@@v8@@PEAVIsolate@3@V?$Local@VObject@v8@@@3@V?$Local@VFunction@v8@@@3@HPEAV23@@Z 0000000180007391 f   node:node.exe
 0001:0000639d       __imp_load_uv_default_loop 000000018000739d f   node:node.exe
 0001:000063a9       __imp_load_?HasCaught@TryCatch@v8@@QEBA_NXZ 00000001800073a9 f   node:node.exe
 0001:000063b5       __imp_load_??1TryCatch@v8@@QEAA@XZ 00000001800073b5 f   node:node.exe
 0001:000063c1       __imp_load_??0TryCatch@v8@@QEAA@PEAVIsolate@1@@Z 00000001800073c1 f   node:node.exe
 0001:000063cd       __imp_load_?Global@Context@v8@@QEAA?AV?$Local@VObject@v8@@@2@XZ 00000001800073cd f   node:node.exe
 0001:000063d9       __imp_load_?ToInteger@Value@v8@@QEBA?AV?$MaybeLocal@VInteger@v8@@@2@V?$Local@VContext@v8@@@2@@Z 00000001800073d9 f   node:node.exe
 0001:000063e5       __imp_load_?IsUint32@Value@v8@@QEBA_NXZ 00000001800073e5 f   node:node.exe
 0001:000063f1       __imp_load_?IsFunction@Value@v8@@QEBA_NXZ 00000001800073f1 f   node:node.exe
 0001:000063fd       __imp_load_?WriteUtf8@String@v8@@QEBAHPEADHPEAHH@Z 00000001800073fd f   node:node.exe
 0001:00006409       __imp_load_?Utf8Length@String@v8@@QEBAHXZ 0000000180007409 f   node:node.exe
 0001:00006415       __imp_load_?New@Object@v8@@SA?AV?$Local@VObject@v8@@@2@PEAVIsolate@2@@Z 0000000180007415 f   node:node.exe
 0001:00006421       __imp_load_?Set@Object@v8@@QEAA_NV?$Local@VValue@v8@@@2@0@Z 0000000180007421 f   node:node.exe
 0001:0000642d       __imp_load_?Set@Object@v8@@QEAA?AV?$Maybe@_N@2@V?$Local@VContext@v8@@@2@IV?$Local@VValue@v8@@@2@@Z 000000018000742d f   node:node.exe
 0001:00006439       __imp_load_?Value@Int32@v8@@QEBAHXZ 0000000180007439 f   node:node.exe
 0001:00006445       __imp_load_?SetAccessor@ObjectTemplate@v8@@QEAAXV?$Local@VName@v8@@@2@P6AX0AEBV?$PropertyCallbackInfo@VValue@v8@@@2@@ZP6AX0V?$Local@VValue@v8@@@2@AEBV?$PropertyCallbackInfo@X@2@@Z3W4AccessControl@2@W4PropertyAttribute@2@V?$Local@VAccessorSignature@v8@@@2@@Z 0000000180007445 f   node:node.exe
 0001:00006451       __imp_load_?Value@Integer@v8@@QEBA_JXZ 0000000180007451 f   node:node.exe
 0001:0000645d       __imp_load_?NewFromUnsigned@Integer@v8@@SA?AV?$Local@VInteger@v8@@@2@PEAVIsolate@2@I@Z 000000018000745d f   node:node.exe
 0001:00006469       __imp_load_?NewInstance@Function@v8@@QEBA?AV?$Local@VObject@v8@@@2@XZ 0000000180007469 f   node:node.exe
 0001:00006475       __imp_load_uv_queue_work   0000000180007475 f   node:node.exe
 0001:00006481       __imp_load_?ToInt32@Value@v8@@QEBA?AV?$Local@VInt32@v8@@@2@XZ 0000000180007481 f   node:node.exe
 0001:0000648d       __imp_load_?ToInteger@Value@v8@@QEBA?AV?$Local@VInteger@v8@@@2@XZ 000000018000748d f   node:node.exe
 0001:00006499       __imp_load_?ToString@Value@v8@@QEBA?AV?$Local@VString@v8@@@2@XZ 0000000180007499 f   node:node.exe
 0001:000064c0       __security_check_cookie    00000001800074c0 f   LIBCMT:amdsecgs.obj
 0001:000064e0       ??3@YAXPEAX@Z              00000001800074e0 f   LIBCMT:delete_scalar.obj
 0001:000064e8       ??2@YAPEAX_K@Z             00000001800074e8 f   LIBCMT:new_scalar.obj
 0001:00006524       ??_U@YAPEAX_K@Z            0000000180007524 f   LIBCMT:new_array.obj
 0001:00006864       _DllMainCRTStartup         0000000180007864 f   LIBCMT:dll_dllmain.obj
 0001:000068a4       __raise_securityfailure    00000001800078a4 f   LIBCMT:gs_report.obj
 0001:000068bc       __report_gsfailure         00000001800078bc f   LIBCMT:gs_report.obj
 0001:00006990       ??0bad_alloc@std@@QEAA@AEBV01@@Z 0000000180007990 f i LIBCMT:throw_bad_alloc.obj
 0001:000069d0       ??0bad_array_new_length@std@@QEAA@AEBV01@@Z 00000001800079d0 f i LIBCMT:throw_bad_alloc.obj
 0001:00006a10       ??0exception@std@@QEAA@AEBV01@@Z 0000000180007a10 f i LIBCMT:throw_bad_alloc.obj
 0001:00006a48       ??1bad_array_new_length@std@@UEAA@XZ 0000000180007a48 f i LIBCMT:throw_bad_alloc.obj
 0001:00006a48       ??1bad_alloc@std@@UEAA@XZ  0000000180007a48 f i LIBCMT:throw_bad_alloc.obj
 0001:00006a5c       ??_Ebad_array_new_length@std@@UEAAPEAXI@Z 0000000180007a5c f i LIBCMT:throw_bad_alloc.obj
 0001:00006a5c       ??_Gbad_array_new_length@std@@UEAAPEAXI@Z 0000000180007a5c f i LIBCMT:throw_bad_alloc.obj
 0001:00006a5c       ??_Gbad_alloc@std@@UEAAPEAXI@Z 0000000180007a5c f i LIBCMT:throw_bad_alloc.obj
 0001:00006a5c       ??_Eexception@std@@UEAAPEAXI@Z 0000000180007a5c f i LIBCMT:throw_bad_alloc.obj
 0001:00006a5c       ??_Ebad_alloc@std@@UEAAPEAXI@Z 0000000180007a5c f i LIBCMT:throw_bad_alloc.obj
 0001:00006a5c       ??_Gexception@std@@UEAAPEAXI@Z 0000000180007a5c f i LIBCMT:throw_bad_alloc.obj
 0001:00006a9c       ?__scrt_throw_std_bad_alloc@@YAXXZ 0000000180007a9c f   LIBCMT:throw_bad_alloc.obj
 0001:00006ad4       ?__scrt_throw_std_bad_array_new_length@@YAXXZ 0000000180007ad4 f   LIBCMT:throw_bad_alloc.obj
 0001:00006b0c       ?what@exception@std@@UEBAPEBDXZ 0000000180007b0c f i LIBCMT:throw_bad_alloc.obj
 0001:00006b20       __security_init_cookie     0000000180007b20 f   LIBCMT:gs_support.obj
 0001:00006bcc       DllMain                    0000000180007bcc f   LIBCMT:dll_dllmain_stub.obj
 0001:00006bd4       ?__scrt_initialize_type_info@@YAXXZ 0000000180007bd4 f   LIBCMT:tncleanup.obj
 0001:00006be4       ?__scrt_uninitialize_type_info@@YAXXZ 0000000180007be4 f   LIBCMT:tncleanup.obj
 0001:00006bf0       __scrt_is_nonwritable_in_current_image 0000000180007bf0 f   LIBCMT:utility.obj
 0001:00006c8c       __scrt_get_dyn_tls_init_callback 0000000180007c8c f   LIBCMT:dyn_tls_init.obj
 0001:00006c94       __scrt_acquire_startup_lock 0000000180007c94 f   LIBCMT:utility_static.obj
 0001:00006c98       __scrt_dllmain_after_initialize_c 0000000180007c98 f   LIBCMT:utility_static.obj
 0001:00006ca8       __scrt_dllmain_crt_thread_attach 0000000180007ca8 f   LIBCMT:utility_static.obj
 0001:00006ce0       __scrt_dllmain_crt_thread_detach 0000000180007ce0 f   LIBCMT:utility_static.obj
 0001:00006cfc       __scrt_dllmain_exception_filter 0000000180007cfc f   LIBCMT:utility_static.obj
 0001:00006d1c       __scrt_dllmain_uninitialize_c 0000000180007d1c f   LIBCMT:utility_static.obj
 0001:00006d34       __scrt_dllmain_uninitialize_critical 0000000180007d34 f   LIBCMT:utility_static.obj
 0001:00006d50       __scrt_initialize_crt      0000000180007d50 f   LIBCMT:utility_static.obj
 0001:00006dac       __scrt_uninitialize_crt    0000000180007dac f   LIBCMT:utility_static.obj
 0001:00006de0       __crt_debugger_hook        0000000180007de0 f   LIBCMT:utility_desktop.obj
 0001:00006de8       __scrt_fastfail            0000000180007de8 f   LIBCMT:utility_desktop.obj
 0001:00006f30       _RTC_Initialize            0000000180007f30 f   LIBCMT:initsect.obj
 0001:00006f68       _RTC_Terminate             0000000180007f68 f   LIBCMT:initsect.obj
 0001:00006fa0       ??_Gtype_info@@UEAAPEAXI@Z 0000000180007fa0 f i LIBCMT:std_type_info_static.obj
 0001:00006fa0       ??_Etype_info@@UEAAPEAXI@Z 0000000180007fa0 f i LIBCMT:std_type_info_static.obj
 0001:00006fc8       __isa_available_init       0000000180007fc8 f   LIBCMT:cpu_disp.obj
 0001:0000716c       __C_specific_handler       000000018000816c f   libvcruntime:chandler.obj
 0001:00007360       _local_unwind              0000000180008360 f   libvcruntime:jmpuwind.obj
 0001:00007390       _NLG_Notify                0000000180008390 f   libvcruntime:jmpuwind.obj
 0001:000073b0       __NLG_Dispatch2            00000001800083b0 f   libvcruntime:jmpuwind.obj
 0001:000073c0       __NLG_Return2              00000001800083c0 f   libvcruntime:jmpuwind.obj
 0001:00007530       __vcrt_CapturePreviousContext 0000000180008530 f   libvcruntime:winapi_downlevel.obj
 0001:000075a4       __vcrt_FlsAlloc            00000001800085a4 f   libvcruntime:winapi_downlevel.obj
 0001:000075e8       __vcrt_FlsFree             00000001800085e8 f   libvcruntime:winapi_downlevel.obj
 0001:0000762c       __vcrt_FlsGetValue         000000018000862c f   libvcruntime:winapi_downlevel.obj
 0001:00007670       __vcrt_FlsSetValue         0000000180008670 f   libvcruntime:winapi_downlevel.obj
 0001:000076c0       __vcrt_InitializeCriticalSectionEx 00000001800086c0 f   libvcruntime:winapi_downlevel.obj
 0001:00007720       __acrt_TerminateProcess    0000000180008720 f   libappcrt:winapi_downlevel.obj
 0001:00007720       __vcrt_TerminateProcess    0000000180008720 f   libvcruntime:winapi_downlevel.obj
 0001:00007740       __vcrt_UnhandledException  0000000180008740 f   libvcruntime:winapi_downlevel.obj
 0001:00007740       __acrt_UnhandledException  0000000180008740 f   libappcrt:winapi_downlevel.obj
 0001:00007760       __vcrt_initialize_winapi_thunks 0000000180008760 f   libvcruntime:winapi_downlevel.obj
 0001:00007784       __vcrt_uninitialize_winapi_thunks 0000000180008784 f   libvcruntime:winapi_downlevel.obj
 0001:000077bc       __std_exception_copy       00000001800087bc f   libvcruntime:std_exception.obj
 0001:0000784c       __std_exception_destroy    000000018000884c f   libvcruntime:std_exception.obj
 0001:00007874       _CxxThrowException         0000000180008874 f   libvcruntime:throw.obj
 0001:0000793c       __vcrt_cleanup_type_info_names 000000018000893c f   libvcruntime:std_type_info.obj
 0001:00007968       __vcrt_initialize          0000000180008968 f   libvcruntime:initialization.obj
 0001:0000799c       __vcrt_thread_attach       000000018000899c f   libvcruntime:initialization.obj
 0001:000079b0       __vcrt_thread_detach       00000001800089b0 f   libvcruntime:initialization.obj
 0001:000079c4       __vcrt_uninitialize        00000001800089c4 f   libvcruntime:initialization.obj
 0001:000079e4       __vcrt_uninitialize_critical 00000001800089e4 f   libvcruntime:initialization.obj
 0001:000079f4       ?terminate@@YAXXZ          00000001800089f4 f   libvcruntime:hooks.obj
 0001:00007a20       memset                     0000000180008a20 f   libvcruntime:memset.obj
 0001:00007c4c       __vcrt_freefls             0000000180008c4c f   libvcruntime:per_thread_data.obj
 0001:00007c6c       __vcrt_freeptd             0000000180008c6c f   libvcruntime:per_thread_data.obj
 0001:00007cbc       __vcrt_getptd              0000000180008cbc f   libvcruntime:per_thread_data.obj
 0001:00007ce0       __vcrt_getptd_noexit       0000000180008ce0 f   libvcruntime:per_thread_data.obj
 0001:00007d88       __vcrt_initialize_ptd      0000000180008d88 f   libvcruntime:per_thread_data.obj
 0001:00007dc8       __vcrt_uninitialize_ptd    0000000180008dc8 f   libvcruntime:per_thread_data.obj
 0001:00007dec       __vcrt_initialize_locks    0000000180008dec f   libvcruntime:locks.obj
 0001:00007e34       __vcrt_uninitialize_locks  0000000180008e34 f   libvcruntime:locks.obj
 0001:00007e6c       __vcrt_initialize_pure_virtual_call_handler 0000000180008e6c f   libvcruntime:purevirt_data.obj
 0001:000088bc       _wassert                   00000001800098bc f   libappcrt:assert.obj
 0001:00008948       fwprintf                   0000000180009948 f i libappcrt:assert.obj
 0001:00008980       swprintf                   0000000180009980 f i libappcrt:assert.obj
 0001:00008a08       _execute_onexit_table      0000000180009a08 f   libappcrt:onexit.obj
 0001:00008ae8       _initialize_onexit_table   0000000180009ae8 f   libappcrt:onexit.obj
 0001:00008b20       _register_onexit_function  0000000180009b20 f   libappcrt:onexit.obj
 0001:00008c80       atexit                     0000000180009c80 f   libappcrt:onexit.obj
 0001:00008ca4       malloc                     0000000180009ca4 f   libappcrt:malloc.obj
 0001:00008cac       __acrt_initialize_stdio    0000000180009cac f   libappcrt:_file.obj
 0001:00008dd0       __acrt_iob_func            0000000180009dd0 f   libappcrt:_file.obj
 0001:00008de4       __acrt_uninitialize_stdio  0000000180009de4 f   libappcrt:_file.obj
 0001:00008e40       _lock_file                 0000000180009e40 f   libappcrt:_file.obj
 0001:00008e4c       _unlock_file               0000000180009e4c f   libappcrt:_file.obj
 0001:00008e58       ??$?RV<lambda_375f2059ece04f1a3491234976883daf>@@AEAV<lambda_8b97db1b1a74c9d5d2f05201ee762dcb>@@V<lambda_d91a30588a32db60f761b18b0c09ab11>@@@?$__crt_seh_guarded_call@H@@QEAAH$$QEAV<lambda_375f2059ece04f1a3491234976883daf>@@AEAV<lambda_8b97db1b1a74c9d5d2f05201ee762dcb>@@$$QEAV<lambda_d91a30588a32db60f761b18b0c09ab11>@@@Z 0000000180009e58 f i libappcrt:output.obj
 0001:00008e98       ??$?RV<lambda_f44018d659a65f962de91447066bfbb0>@@AEAV<lambda_c2e2a780365980b01940295d90109018>@@V<lambda_7f98fe85b6c52e814278db065628b656>@@@?$__crt_seh_guarded_call@H@@QEAAH$$QEAV<lambda_f44018d659a65f962de91447066bfbb0>@@AEAV<lambda_c2e2a780365980b01940295d90109018>@@$$QEAV<lambda_7f98fe85b6c52e814278db065628b656>@@@Z 0000000180009e98 f i libappcrt:output.obj
 0001:00008ed8       ??$ensure_buffer_is_big_enough@D@formatting_buffer@__crt_stdio_output@@QEAA_N_K@Z 0000000180009ed8 f i libappcrt:output.obj
 0001:00008f84       ??$is_wide_character_specifier@D@__crt_stdio_output@@YA_N_KDW4length_modifier@0@@Z 0000000180009f84 f i libappcrt:output.obj
 0001:00008fb4       ??$is_wide_character_specifier@_W@__crt_stdio_output@@YA_N_K_WW4length_modifier@0@@Z 0000000180009fb4 f i libappcrt:output.obj
 0001:00008ff8       ??$write_multiple_characters@V?$stream_output_adapter@D@__crt_stdio_output@@D@__crt_stdio_output@@YAXAEBV?$stream_output_adapter@D@0@DHQEAH@Z 0000000180009ff8 f i libappcrt:output.obj
 0001:00009084       ??$write_multiple_characters@V?$stream_output_adapter@_W@__crt_stdio_output@@D@__crt_stdio_output@@YAXAEBV?$stream_output_adapter@_W@0@DHQEAH@Z 000000018000a084 f i libappcrt:output.obj
 0001:00009118       ??$write_multiple_characters@V?$string_output_adapter@_W@__crt_stdio_output@@D@__crt_stdio_output@@YAXAEBV?$string_output_adapter@_W@0@DHQEAH@Z 000000018000a118 f i libappcrt:output.obj
 0001:00009188       ??0?$output_processor@DV?$stream_output_adapter@D@__crt_stdio_output@@V?$standard_base@DV?$stream_output_adapter@D@__crt_stdio_output@@@2@@__crt_stdio_output@@QEAA@AEBV?$stream_output_adapter@D@1@_KQEBDQEAU__crt_locale_pointers@@QEAD@Z 000000018000a188 f i libappcrt:output.obj
 0001:00009204       ??0?$output_processor@_WV?$string_output_adapter@_W@__crt_stdio_output@@V?$standard_base@_WV?$string_output_adapter@_W@__crt_stdio_output@@@2@@__crt_stdio_output@@QEAA@AEBV?$string_output_adapter@_W@1@_KQEB_WQEAU__crt_locale_pointers@@QEAD@Z 000000018000a204 f i libappcrt:output.obj
 0001:00009204       ??0?$output_processor@_WV?$stream_output_adapter@_W@__crt_stdio_output@@V?$standard_base@_WV?$stream_output_adapter@_W@__crt_stdio_output@@@2@@__crt_stdio_output@@QEAA@AEBV?$stream_output_adapter@_W@1@_KQEB_WQEAU__crt_locale_pointers@@QEAD@Z 000000018000a204 f i libappcrt:output.obj
 0001:00009284       ??0_LocaleUpdate@@QEAA@QEAU__crt_locale_pointers@@@Z 000000018000a284 f i libappcrt:output.obj
 0001:000094f8       ?force_decimal_point@__crt_stdio_output@@YAXPEADQEAU__crt_locale_pointers@@@Z 000000018000a4f8 f i libappcrt:output.obj
 0001:00009568       ?parse_int_from_format_string@?$output_processor@DV?$stream_output_adapter@D@__crt_stdio_output@@V?$standard_base@DV?$stream_output_adapter@D@__crt_stdio_output@@@2@@__crt_stdio_output@@AEAA_NQEAH@Z 000000018000a568 f i libappcrt:output.obj
 0001:000095ec       ?parse_int_from_format_string@?$output_processor@_WV?$string_output_adapter@_W@__crt_stdio_output@@V?$standard_base@_WV?$string_output_adapter@_W@__crt_stdio_output@@@2@@__crt_stdio_output@@AEAA_NQEAH@Z 000000018000a5ec f i libappcrt:output.obj
 0001:000095ec       ?parse_int_from_format_string@?$output_processor@_WV?$stream_output_adapter@_W@__crt_stdio_output@@V?$standard_base@_WV?$stream_output_adapter@_W@__crt_stdio_output@@@2@@__crt_stdio_output@@AEAA_NQEAH@Z 000000018000a5ec f i libappcrt:output.obj
 0001:0000966c       ?process@?$output_processor@DV?$stream_output_adapter@D@__crt_stdio_output@@V?$standard_base@DV?$stream_output_adapter@D@__crt_stdio_output@@@2@@__crt_stdio_output@@QEAAHXZ 000000018000a66c f i libappcrt:output.obj
 0001:00009884       ?process@?$output_processor@_WV?$stream_output_adapter@_W@__crt_stdio_output@@V?$standard_base@_WV?$stream_output_adapter@_W@__crt_stdio_output@@@2@@__crt_stdio_output@@QEAAHXZ 000000018000a884 f i libappcrt:output.obj
 0001:00009afc       ?process@?$output_processor@_WV?$string_output_adapter@_W@__crt_stdio_output@@V?$standard_base@_WV?$string_output_adapter@_W@__crt_stdio_output@@@2@@__crt_stdio_output@@QEAAHXZ 000000018000aafc f i libappcrt:output.obj
 0001:00009d78       ?state_case_normal_common@?$output_processor@DV?$stream_output_adapter@D@__crt_stdio_output@@V?$standard_base@DV?$stream_output_adapter@D@__crt_stdio_output@@@2@@__crt_stdio_output@@AEAA_NXZ 000000018000ad78 f i libappcrt:output.obj
 0001:00009ddc       ?state_case_normal_tchar@?$output_processor@DV?$stream_output_adapter@D@__crt_stdio_output@@V?$standard_base@DV?$stream_output_adapter@D@__crt_stdio_output@@@2@@__crt_stdio_output@@AEAA_ND@Z 000000018000addc f i libappcrt:output.obj
 0001:00009e7c       ?state_case_size@?$output_processor@DV?$stream_output_adapter@D@__crt_stdio_output@@V?$standard_base@DV?$stream_output_adapter@D@__crt_stdio_output@@@2@@__crt_stdio_output@@AEAA_NXZ 000000018000ae7c f i libappcrt:output.obj
 0001:00009ff8       ?state_case_size@?$output_processor@_WV?$stream_output_adapter@_W@__crt_stdio_output@@V?$standard_base@_WV?$stream_output_adapter@_W@__crt_stdio_output@@@2@@__crt_stdio_output@@AEAA_NXZ 000000018000aff8 f i libappcrt:output.obj
 0001:0000a19c       ?state_case_size@?$output_processor@_WV?$string_output_adapter@_W@__crt_stdio_output@@V?$standard_base@_WV?$string_output_adapter@_W@__crt_stdio_output@@@2@@__crt_stdio_output@@AEAA_NXZ 000000018000b19c f i libappcrt:output.obj
 0001:0000a340       ?state_case_type@?$output_processor@DV?$stream_output_adapter@D@__crt_stdio_output@@V?$standard_base@DV?$stream_output_adapter@D@__crt_stdio_output@@@2@@__crt_stdio_output@@AEAA_NXZ 000000018000b340 f i libappcrt:output.obj
 0001:0000a5bc       ?state_case_type@?$output_processor@_WV?$stream_output_adapter@_W@__crt_stdio_output@@V?$standard_base@_WV?$stream_output_adapter@_W@__crt_stdio_output@@@2@@__crt_stdio_output@@AEAA_NXZ 000000018000b5bc f i libappcrt:output.obj
 0001:0000a888       ?state_case_type@?$output_processor@_WV?$string_output_adapter@_W@__crt_stdio_output@@V?$standard_base@_WV?$string_output_adapter@_W@__crt_stdio_output@@@2@@__crt_stdio_output@@AEAA_NXZ 000000018000b888 f i libappcrt:output.obj
 0001:0000ab54       ?type_case_Z@?$output_processor@DV?$stream_output_adapter@D@__crt_stdio_output@@V?$standard_base@DV?$stream_output_adapter@D@__crt_stdio_output@@@2@@__crt_stdio_output@@AEAA_NXZ 000000018000bb54 f i libappcrt:output.obj
 0001:0000abd4       ?type_case_Z@?$output_processor@_WV?$stream_output_adapter@_W@__crt_stdio_output@@V?$standard_base@_WV?$stream_output_adapter@_W@__crt_stdio_output@@@2@@__crt_stdio_output@@AEAA_NXZ 000000018000bbd4 f i libappcrt:output.obj
 0001:0000abd4       ?type_case_Z@?$output_processor@_WV?$string_output_adapter@_W@__crt_stdio_output@@V?$standard_base@_WV?$string_output_adapter@_W@__crt_stdio_output@@@2@@__crt_stdio_output@@AEAA_NXZ 000000018000bbd4 f i libappcrt:output.obj
 0001:0000ac54       ?type_case_a@?$output_processor@DV?$stream_output_adapter@D@__crt_stdio_output@@V?$standard_base@DV?$stream_output_adapter@D@__crt_stdio_output@@@2@@__crt_stdio_output@@AEAA_NXZ 000000018000bc54 f i libappcrt:output.obj
 0001:0000ae70       ?type_case_a@?$output_processor@_WV?$string_output_adapter@_W@__crt_stdio_output@@V?$standard_base@_WV?$string_output_adapter@_W@__crt_stdio_output@@@2@@__crt_stdio_output@@AEAA_NXZ 000000018000be70 f i libappcrt:output.obj
 0001:0000ae70       ?type_case_a@?$output_processor@_WV?$stream_output_adapter@_W@__crt_stdio_output@@V?$standard_base@_WV?$stream_output_adapter@_W@__crt_stdio_output@@@2@@__crt_stdio_output@@AEAA_NXZ 000000018000be70 f i libappcrt:output.obj
 0001:0000b0b4       ?type_case_c_tchar@?$output_processor@DV?$stream_output_adapter@D@__crt_stdio_output@@V?$standard_base@DV?$stream_output_adapter@D@__crt_stdio_output@@@2@@__crt_stdio_output@@AEAA_ND@Z 000000018000c0b4 f i libappcrt:output.obj
 0001:0000b168       ?type_case_c_tchar@?$output_processor@_WV?$stream_output_adapter@_W@__crt_stdio_output@@V?$standard_base@_WV?$stream_output_adapter@_W@__crt_stdio_output@@@2@@__crt_stdio_output@@AEAA_N_W@Z 000000018000c168 f i libappcrt:output.obj
 0001:0000b168       ?type_case_c_tchar@?$output_processor@_WV?$string_output_adapter@_W@__crt_stdio_output@@V?$standard_base@_WV?$string_output_adapter@_W@__crt_stdio_output@@@2@@__crt_stdio_output@@AEAA_N_W@Z 000000018000c168 f i libappcrt:output.obj
 0001:0000b210       ?type_case_integer@?$output_processor@DV?$stream_output_adapter@D@__crt_stdio_output@@V?$standard_base@DV?$stream_output_adapter@D@__crt_stdio_output@@@2@@__crt_stdio_output@@AEAA_NI_N@Z 000000018000c210 f i libappcrt:output.obj
 0001:0000b210       ?type_case_integer@?$output_processor@_WV?$string_output_adapter@_W@__crt_stdio_output@@V?$standard_base@_WV?$string_output_adapter@_W@__crt_stdio_output@@@2@@__crt_stdio_output@@AEAA_NI_N@Z 000000018000c210 f i libappcrt:output.obj
 0001:0000b210       ?type_case_integer@?$output_processor@_WV?$stream_output_adapter@_W@__crt_stdio_output@@V?$standard_base@_WV?$stream_output_adapter@_W@__crt_stdio_output@@@2@@__crt_stdio_output@@AEAA_NI_N@Z 000000018000c210 f i libappcrt:output.obj
 0001:0000b440       ?type_case_n@?$output_processor@_WV?$string_output_adapter@_W@__crt_stdio_output@@V?$standard_base@_WV?$string_output_adapter@_W@__crt_stdio_output@@@2@@__crt_stdio_output@@AEAA_NXZ 000000018000c440 f i libappcrt:output.obj
 0001:0000b440       ?type_case_n@?$output_processor@_WV?$stream_output_adapter@_W@__crt_stdio_output@@V?$standard_base@_WV?$stream_output_adapter@_W@__crt_stdio_output@@@2@@__crt_stdio_output@@AEAA_NXZ 000000018000c440 f i libappcrt:output.obj
 0001:0000b440       ?type_case_n@?$output_processor@DV?$stream_output_adapter@D@__crt_stdio_output@@V?$standard_base@DV?$stream_output_adapter@D@__crt_stdio_output@@@2@@__crt_stdio_output@@AEAA_NXZ 000000018000c440 f i libappcrt:output.obj
 0001:0000b51c       ?type_case_s@?$output_processor@DV?$stream_output_adapter@D@__crt_stdio_output@@V?$standard_base@DV?$stream_output_adapter@D@__crt_stdio_output@@@2@@__crt_stdio_output@@AEAA_NXZ 000000018000c51c f i libappcrt:output.obj
 0001:0000b5ac       ?type_case_s@?$output_processor@_WV?$stream_output_adapter@_W@__crt_stdio_output@@V?$standard_base@_WV?$stream_output_adapter@_W@__crt_stdio_output@@@2@@__crt_stdio_output@@AEAA_NXZ 000000018000c5ac f i libappcrt:output.obj
 0001:0000b5ac       ?type_case_s@?$output_processor@_WV?$string_output_adapter@_W@__crt_stdio_output@@V?$standard_base@_WV?$string_output_adapter@_W@__crt_stdio_output@@@2@@__crt_stdio_output@@AEAA_NXZ 000000018000c5ac f i libappcrt:output.obj
 0001:0000b674       ?validate_stream_is_ansi_if_required@?$__acrt_stdio_char_traits@D@@SA_NQEAU_iobuf@@@Z 000000018000c674 f i libappcrt:output.obj
 0001:0000b70c       ?write_stored_string_tchar@?$output_processor@DV?$stream_output_adapter@D@__crt_stdio_output@@V?$standard_base@DV?$stream_output_adapter@D@__crt_stdio_output@@@2@@__crt_stdio_output@@AEAA_ND@Z 000000018000c70c f i libappcrt:output.obj
 0001:0000b7e4       ?write_stored_string_tchar@?$output_processor@_WV?$stream_output_adapter@_W@__crt_stdio_output@@V?$standard_base@_WV?$stream_output_adapter@_W@__crt_stdio_output@@@2@@__crt_stdio_output@@AEAA_N_W@Z 000000018000c7e4 f i libappcrt:output.obj
 0001:0000b8d4       ?write_stored_string_tchar@?$output_processor@_WV?$string_output_adapter@_W@__crt_stdio_output@@V?$standard_base@_WV?$string_output_adapter@_W@__crt_stdio_output@@@2@@__crt_stdio_output@@AEAA_N_W@Z 000000018000c8d4 f i libappcrt:output.obj
 0001:0000b9c4       ?write_string@?$stream_output_adapter@D@__crt_stdio_output@@QEBAXQEBDHQEAH1@Z 000000018000c9c4 f i libappcrt:output.obj
 0001:0000bad0       ?write_string@?$stream_output_adapter@_W@__crt_stdio_output@@QEBAXQEB_WHQEAH1@Z 000000018000cad0 f i libappcrt:output.obj
 0001:0000bbe0       ?write_string@?$string_output_adapter@_W@__crt_stdio_output@@QEBAXQEB_WHQEAH1@Z 000000018000cbe0 f i libappcrt:output.obj
 0001:0000bcf8       __stdio_common_vfprintf    000000018000ccf8 f   libappcrt:output.obj
 0001:0000bd84       __stdio_common_vfwprintf   000000018000cd84 f   libappcrt:output.obj
 0001:0000be10       __stdio_common_vswprintf   000000018000ce10 f   libappcrt:output.obj
 0001:0000c048       __dcrt_freefls             000000018000d048 f   libdesktopcrt:per_thread_data.obj
 0001:0000c048       free                       000000018000d048 f   libappcrt:free.obj
 0001:0000c050       calloc                     000000018000d050 f   libappcrt:calloc.obj
 0001:0000c058       _strdup                    000000018000d058 f   libappcrt:strdup.obj
 0001:0000c0d0       __ascii_stricmp            000000018000d0d0 f   libappcrt:stricmp.obj
 0001:0000c10c       _stricmp                   000000018000d10c f   libappcrt:stricmp.obj
 0001:0000c16c       _stricmp_l                 000000018000d16c f   libappcrt:stricmp.obj
 0001:0000c220       __acrt_initialize_new_handler 000000018000d220 f   libappcrt:new_handler.obj
 0001:0000c228       _callnewh                  000000018000d228 f   libappcrt:new_handler.obj
 0001:0000c254       _query_new_handler         000000018000d254 f   libappcrt:new_handler.obj
 0001:0000c284       _initterm                  000000018000d284 f   libappcrt:initterm.obj
 0001:0000c2e4       _initterm_e                000000018000d2e4 f   libappcrt:initterm.obj
 0001:0000c320       _seh_filter_dll            000000018000d320 f   libappcrt:exception_filter.obj
 0001:0000c334       _seh_filter_exe            000000018000d334 f   libappcrt:exception_filter.obj
 0001:0000c684       __acrt_initialize_thread_local_exit_callback 000000018000d684 f   libappcrt:exit.obj
 0001:0000c68c       _cexit                     000000018000d68c f   libappcrt:exit.obj
 0001:0000c69c       _exit                      000000018000d69c f   libappcrt:exit.obj
 0001:0000c6a8       _is_c_termination_complete 000000018000d6a8 f   libappcrt:exit.obj
 0001:0000c7d4       __acrt_initialize          000000018000d7d4 f   libappcrt:initialization.obj
 0001:0000c7e8       __acrt_post_initialize     000000018000d7e8 f   libappcrt:initialization.obj
 0001:0000c81c       __acrt_thread_attach       000000018000d81c f   libappcrt:initialization.obj
 0001:0000c830       __acrt_thread_detach       000000018000d830 f   libappcrt:initialization.obj
 0001:0000c844       __acrt_uninitialize        000000018000d844 f   libappcrt:initialization.obj
 0001:0000c858       __acrt_uninitialize_critical 000000018000d858 f   libappcrt:initialization.obj
 0001:0000c868       strcpy_s                   000000018000d868 f   libappcrt:strcpy_s.obj
 0001:0000c8c8       _free_base                 000000018000d8c8 f   libappcrt:free_base.obj
 0001:0000c908       _malloc_base               000000018000d908 f   libappcrt:malloc_base.obj
 0001:0000c968       abort                      000000018000d968 f   libappcrt:abort.obj
 0001:0000c9c0       _calloc_base               000000018000d9c0 f   libappcrt:calloc_base.obj
 0001:0000ca38       __acrt_report_runtime_error 000000018000da38 f   libappcrt:report_runtime_error.obj
 0001:0000cc68       __acrt_report_runtime_error_and_exit 000000018000dc68 f   libappcrt:report_runtime_error.obj
 0001:0000cc84       _query_app_type            000000018000dc84 f   libappcrt:report_runtime_error.obj
 0001:0000cd34       __acrt_call_reportfault    000000018000dd34 f   libappcrt:invalid_parameter.obj
 0001:0000ce28       __acrt_initialize_invalid_parameter_handler 000000018000de28 f   libappcrt:invalid_parameter.obj
 0001:0000ce30       _invalid_parameter         000000018000de30 f   libappcrt:invalid_parameter.obj
 0001:0000ce98       _invalid_parameter_noinfo  000000018000de98 f   libappcrt:invalid_parameter.obj
 0001:0000ceb8       _invoke_watson             000000018000deb8 f   libappcrt:invalid_parameter.obj
 0001:0000cef4       __acrt_errno_from_os_error 000000018000def4 f   libappcrt:errno.obj
 0001:0000cf3c       __acrt_errno_map_os_error  000000018000df3c f   libappcrt:errno.obj
 0001:0000cf8c       __doserrno                 000000018000df8c f   libappcrt:errno.obj
 0001:0000cfac       _errno                     000000018000dfac f   libappcrt:errno.obj
 0001:0000cfcc       wcscat_s                   000000018000dfcc f   libappcrt:wcscat_s.obj
 0001:0000d04c       wcscpy_s                   000000018000e04c f   libappcrt:wcscpy_s.obj
 0001:0000d0b4       wcsncat_s                  000000018000e0b4 f   libappcrt:wcsncat_s.obj
 0001:0000d2dc       _itow_s                    000000018000e2dc f   libappcrt:xtoa.obj
 0001:0000d2fc       _set_error_mode            000000018000e2fc f   libappcrt:set_error_mode.obj
 0001:0000d660       __acrt_MessageBoxW         000000018000e660 f   libappcrt:crtmbox.obj
 0001:0000d7a8       __acrt_ExitProcess         000000018000e7a8 f   libappcrt:winapi_nonmsdk.obj
 0001:0000d838       __acrt_FreeLibrary         000000018000e838 f   libappcrt:winapi_nonmsdk.obj
 0001:0000d880       __acrt_GetConsoleMode      000000018000e880 f   libappcrt:winapi_nonmsdk.obj
 0001:0000d924       __acrt_GetFileType         000000018000e924 f   libappcrt:winapi_nonmsdk.obj
 0001:0000d9b8       __acrt_GetModuleHandleExW  000000018000e9b8 f   libappcrt:winapi_nonmsdk.obj
 0001:0000da00       __acrt_GetModuleHandleW    000000018000ea00 f   libappcrt:winapi_nonmsdk.obj
 0001:0000da48       __acrt_GetStartupInfoW     000000018000ea48 f   libappcrt:winapi_nonmsdk.obj
 0001:0000da90       __acrt_GetStdHandle        000000018000ea90 f   libappcrt:winapi_nonmsdk.obj
 0001:0000db20       __acrt_LoadLibraryExW      000000018000eb20 f   libappcrt:winapi_nonmsdk.obj
 0001:0000db68       __acrt_SetStdHandle        000000018000eb68 f   libappcrt:winapi_nonmsdk.obj
 0001:0000dc08       __acrt_has_desktop_or_debug_support 000000018000ec08 f   libappcrt:winapi_nonmsdk.obj
 0001:0000dc08       __acrt_has_desktop_support 000000018000ec08 f   libappcrt:winapi_nonmsdk.obj
 0001:0000dc24       __acrt_post_initialize_nonmsdk_dependencies 000000018000ec24 f   libappcrt:winapi_nonmsdk.obj
 0001:0000df18       __acrt_pre_initialize_nonmsdk_dependencies 000000018000ef18 f   libappcrt:winapi_nonmsdk.obj
 0001:0000dfc0       __acrt_uninitialize_nonmsdk_dependencies 000000018000efc0 f   libappcrt:winapi_nonmsdk.obj
 0001:0000e244       __acrt_stdio_flush_nolock  000000018000f244 f   libappcrt:fflush.obj
 0001:0000e2cc       _fflush_nolock             000000018000f2cc f   libappcrt:fflush.obj
 0001:0000e324       _flushall                  000000018000f324 f   libappcrt:fflush.obj
 0001:0000e450       fflush                     000000018000f450 f   libappcrt:fflush.obj
 0001:0000e494       ??$?RV<lambda_748170f0745e8ff1df7bb43bcbf3b33d>@@AEAV<lambda_11f1b9fd45bbe0eb9ff4d0acb58976bf>@@V<lambda_17683df6366aaadc43f3d402e9bdd393>@@@?$__crt_seh_guarded_call@H@@QEAAH$$QEAV<lambda_748170f0745e8ff1df7bb43bcbf3b33d>@@AEAV<lambda_11f1b9fd45bbe0eb9ff4d0acb58976bf>@@$$QEAV<lambda_17683df6366aaadc43f3d402e9bdd393>@@@Z 000000018000f494 f i libappcrt:setvbuf.obj
 0001:0000e5c4       setvbuf                    000000018000f5c4 f   libappcrt:setvbuf.obj
 0001:0000e664       __acrt_get_sigabrt_handler 000000018000f664 f   libappcrt:signal.obj
 0001:0000e6a8       __acrt_initialize_signal_handlers 000000018000f6a8 f   libappcrt:signal.obj
 0001:0000e6c8       raise                      000000018000f6c8 f   libappcrt:signal.obj
 0001:0000e91c       _recalloc                  000000018000f91c f   libappcrt:recalloc.obj
 0001:0000e924       _recalloc_base             000000018000f924 f   libappcrt:recalloc.obj
 0001:0000e9bc       __acrt_initialize_locks    000000018000f9bc f   libappcrt:locks.obj
 0001:0000ea04       __acrt_lock                000000018000fa04 f   libappcrt:locks.obj
 0001:0000ea20       __acrt_uninitialize_locks  000000018000fa20 f   libappcrt:locks.obj
 0001:0000ea58       __acrt_unlock              000000018000fa58 f   libappcrt:locks.obj
 0001:0000eb04       __acrt_CaptureCurrentContext 000000018000fb04 f   libappcrt:winapi_downlevel.obj
 0001:0000eb74       __acrt_FlsAlloc            000000018000fb74 f   libappcrt:winapi_downlevel.obj
 0001:0000eb94       __acrt_FlsFree             000000018000fb94 f   libappcrt:winapi_downlevel.obj
 0001:0000ebb4       __acrt_FlsGetValue         000000018000fbb4 f   libappcrt:winapi_downlevel.obj
 0001:0000ebd4       __acrt_FlsSetValue         000000018000fbd4 f   libappcrt:winapi_downlevel.obj
 0001:0000ebf4       __acrt_InitializeCriticalSectionEx 000000018000fbf4 f   libappcrt:winapi_downlevel.obj
 0001:0000ec14       __acrt_IsPackagedApp       000000018000fc14 f   libappcrt:winapi_downlevel.obj
 0001:0000ec18       __acrt_LCMapStringEx       000000018000fc18 f   libappcrt:winapi_downlevel.obj
 0001:0000ecac       __acrt_initialize_downlevel_dependencies 000000018000fcac f   libappcrt:winapi_downlevel.obj
 0001:0000ef58       _fcloseall                 000000018000ff58 f   libappcrt:closeall.obj
 0001:0000f014       __acrt_stdio_free_buffer_nolock 0000000180010014 f   libappcrt:_freebuf.obj
 0001:0000f2b0       __acrt_initialize_lowio    00000001800102b0 f   libappcrt:ioinit.obj
 0001:0000f300       __acrt_uninitialize_lowio  0000000180010300 f   libappcrt:ioinit.obj
 0001:0000f340       isdigit                    0000000180010340 f i libappcrt:_ctype.obj
 0001:0000f404       _tolower_l                 0000000180010404 f   libappcrt:tolower_toupper.obj
 0001:0000f544       tolower                    0000000180010544 f   libappcrt:tolower_toupper.obj
 0001:0000f578       strnlen                    0000000180010578 f   libappcrt:strnlen.obj
 0001:0000f6d0       wcsnlen                    00000001800106d0 f   libappcrt:strnlen.obj
 0001:0000f8c0       ??$make_c_string_character_source@DPEAPEAD@__crt_strtox@@YA?AV?$c_string_character_source@D@0@QEBDQEAPEAD@Z 00000001800108c0 f i libappcrt:strtox.obj
 0001:0000f8c0       ??$make_c_string_character_source@_WPEAPEA_W@__crt_strtox@@YA?AV?$c_string_character_source@_W@0@QEB_WQEAPEA_W@Z 00000001800108c0 f i libappcrt:strtox.obj
 0001:0000f8e0       ??$parse_integer@KV?$c_string_character_source@D@__crt_strtox@@@__crt_strtox@@YAKQEAU__crt_locale_pointers@@V?$c_string_character_source@D@0@H_N@Z 00000001800108e0 f i libappcrt:strtox.obj
 0001:0000fd60       ??$parse_integer@KV?$c_string_character_source@_W@__crt_strtox@@@__crt_strtox@@YAKQEAU__crt_locale_pointers@@V?$c_string_character_source@_W@0@H_N@Z 0000000180010d60 f i libappcrt:strtox.obj
 0001:00010650       ?unget@?$c_string_character_source@_W@__crt_strtox@@QEAAX_W@Z 0000000180011650 f i libappcrt:strtox.obj
 0001:00010680       strtol                     0000000180011680 f   libappcrt:strtox.obj
 0001:000106b0       wcstol                     00000001800116b0 f   libappcrt:strtox.obj
 0001:000106e0       _mbtowc_l                  00000001800116e0 f   libappcrt:mbtowc.obj
 0001:00010828       mbtowc                     0000000180011828 f   libappcrt:mbtowc.obj
 0001:00010830       _wctomb_s_l                0000000180011830 f   libappcrt:wctomb.obj
 0001:000109b4       wctomb_s                   00000001800119b4 f   libappcrt:wctomb.obj
 0001:000109c8       __acrt_locale_changed      00000001800119c8 f   libappcrt:wsetlocale.obj
 0001:000109d8       __acrt_set_locale_changed  00000001800119d8 f   libappcrt:wsetlocale.obj
 0001:000109e4       __acrt_uninitialize_locale 00000001800119e4 f   libappcrt:wsetlocale.obj
 0001:00010bd4       __acrt_freefls             0000000180011bd4 f   libappcrt:per_thread_data.obj
 0001:00010c28       __acrt_freeptd             0000000180011c28 f   libappcrt:per_thread_data.obj
 0001:00010c6c       __acrt_getptd              0000000180011c6c f   libappcrt:per_thread_data.obj
 0001:00010d44       __acrt_getptd_noexit       0000000180011d44 f   libappcrt:per_thread_data.obj
 0001:00010e14       __acrt_initialize_ptd      0000000180011e14 f   libappcrt:per_thread_data.obj
 0001:00010e50       __acrt_uninitialize_ptd    0000000180011e50 f   libappcrt:per_thread_data.obj
 0001:00010e74       __acrt_update_locale_info  0000000180011e74 f   libappcrt:locale_update.obj
 0001:00010ea8       __acrt_update_multibyte_info 0000000180011ea8 f   libappcrt:locale_update.obj
 0001:00010edc       ?__acrt_fp_classify@@YA?AW4__acrt_fp_class@@AEBN@Z 0000000180011edc f i libappcrt:cvt.obj
 0001:00011910       __acrt_fp_format           0000000180012910 f   libappcrt:cvt.obj
 0001:00011b4c       _fputwc_nolock             0000000180012b4c f   libappcrt:fputwc.obj
 0001:00011cd8       _fileno                    0000000180012cd8 f   libappcrt:fileno.obj
 0001:00011d04       _fputc_nolock              0000000180012d04 f   libappcrt:fputc.obj
 0001:00011d1c       _get_printf_count_output   0000000180012d1c f   libappcrt:printf_count_output.obj
 0001:00011d34       __acrt_stdio_begin_temporary_buffering_nolock 0000000180012d34 f   libappcrt:_sftbuf.obj
 0001:00011e18       __acrt_stdio_end_temporary_buffering_nolock 0000000180012e18 f   libappcrt:_sftbuf.obj
 0001:00011e60       __acrt_initialize_rand_s   0000000180012e60 f   libappcrt:rand_s.obj
 0001:00011e7c       __acrt_uninitialize_rand_s 0000000180012e7c f   libappcrt:rand_s.obj
 0001:00011eb0       __acrt_initialize_heap     0000000180012eb0 f   libappcrt:heap_handle.obj
 0001:00011ecc       __acrt_uninitialize_heap   0000000180012ecc f   libappcrt:heap_handle.obj
 0001:00011ed8       __acrt_initialize_command_line 0000000180012ed8 f   libappcrt:argv_data.obj
 0001:00011f00       __acrt_execute_initializers 0000000180012f00 f   libappcrt:shared_initialization.obj
 0001:00011f78       __acrt_execute_uninitializers 0000000180012f78 f   libappcrt:shared_initialization.obj
 0001:00011fb4       __acrt_has_user_matherr    0000000180012fb4 f   libappcrt:matherr.obj
 0001:00011fd0       __acrt_initialize_user_matherr 0000000180012fd0 f   libappcrt:matherr.obj
 0001:00011fd8       __acrt_invoke_user_matherr 0000000180012fd8 f   libappcrt:matherr.obj
 0001:00012004       ??$?RV<lambda_ac7773736e81d5faf930c0e5de6ba98a>@@AEAV<lambda_4909cec072cc63abf853bb7ad6f5d02b>@@V<lambda_0d0f2b3334941ad2ab7cbf11e6f8125e>@@@?$__crt_seh_guarded_call@X@@QEAAX$$QEAV<lambda_ac7773736e81d5faf930c0e5de6ba98a>@@AEAV<lambda_4909cec072cc63abf853bb7ad6f5d02b>@@$$QEAV<lambda_0d0f2b3334941ad2ab7cbf11e6f8125e>@@@Z 0000000180013004 f i libappcrt:mbctype.obj
 0001:000126d8       __acrt_initialize_multibyte 00000001800136d8 f   libappcrt:mbctype.obj
 0001:00012700       __acrt_update_thread_multibyte_data 0000000180013700 f   libappcrt:mbctype.obj
 0001:000127b8       _setmbcp_nolock            00000001800137b8 f   libappcrt:mbctype.obj
 0001:00012a60       _query_new_mode            0000000180013a60 f   libappcrt:new_mode.obj
 0001:00012a70       wcsncpy_s                  0000000180013a70 f   libappcrt:wcsncpy_s.obj
 0001:00012b54       ??$?RV<lambda_d17ac63b517632fdc8df1c31ffa76819>@@AEAV<lambda_b808959b143381ef4fbd2e2a6d0713c5>@@V<lambda_bc395a1919b252af978e71f59923aa8a>@@@?$__crt_seh_guarded_call@H@@QEAAH$$QEAV<lambda_d17ac63b517632fdc8df1c31ffa76819>@@AEAV<lambda_b808959b143381ef4fbd2e2a6d0713c5>@@$$QEAV<lambda_bc395a1919b252af978e71f59923aa8a>@@@Z 0000000180013b54 f i libappcrt:commit.obj
 0001:00012be0       _commit                    0000000180013be0 f   libappcrt:commit.obj
 0001:00013214       _write                     0000000180014214 f   libappcrt:write.obj
 0001:0001331c       _write_nolock              000000018001431c f   libappcrt:write.obj
 0001:00013624       _msize                     0000000180014624 f   libappcrt:msize.obj
 0001:00013660       _realloc_base              0000000180014660 f   libappcrt:realloc_base.obj
 0001:000137ac       __acrt_DownlevelLocaleNameToLCID 00000001800147ac f   libappcrt:lcidtoname_downlevel.obj
 0001:000137e0       _fclose_nolock             00000001800147e0 f   libappcrt:fclose.obj
 0001:00013874       fclose                     0000000180014874 f   libappcrt:fclose.obj
 0001:000138e8       __acrt_lowio_create_handle_array 00000001800148e8 f   libappcrt:osfinfo.obj
 0001:00013980       __acrt_lowio_destroy_handle_array 0000000180014980 f   libappcrt:osfinfo.obj
 0001:000139d0       __acrt_lowio_ensure_fh_exists 00000001800149d0 f   libappcrt:osfinfo.obj
 0001:00013a88       __acrt_lowio_lock_fh       0000000180014a88 f   libappcrt:osfinfo.obj
 0001:00013aac       __acrt_lowio_unlock_fh     0000000180014aac f   libappcrt:osfinfo.obj
 0001:00013ad0       _free_osfhnd               0000000180014ad0 f   libappcrt:osfinfo.obj
 0001:00013b94       _get_osfhandle             0000000180014b94 f   libappcrt:osfinfo.obj
 0001:00013c0c       __pctype_func              0000000180014c0c f   libappcrt:ctype.obj
 0001:00013c3c       _isctype_l                 0000000180014c3c f   libappcrt:isctype.obj
 0001:00013d4c       _isleadbyte_l              0000000180014d4c f i libappcrt:_wctype.obj
 0001:00014098       __acrt_LCMapStringA        0000000180015098 f   libappcrt:LCMapStringA.obj
 0001:00014130       iswctype                   0000000180015130 f   libappcrt:iswctype.obj
 0001:00014250       __acrt_locale_free_time    0000000180015250 f   libappcrt:inittime.obj
 0001:000143b0       __acrt_locale_free_monetary 00000001800153b0 f   libappcrt:initmon.obj
 0001:000144bc       __acrt_locale_free_numeric 00000001800154bc f   libappcrt:initnum.obj
 0001:00014528       __acrt_GetStringTypeA      0000000180015528 f   libappcrt:GetStringTypeA.obj
 0001:000146dc       __acrt_add_locale_ref      00000001800156dc f   libappcrt:locale_refcounting.obj
 0001:0001476c       __acrt_free_locale         000000018001576c f   libappcrt:locale_refcounting.obj
 0001:00014904       __acrt_release_locale_ref  0000000180015904 f   libappcrt:locale_refcounting.obj
 0001:000149a8       __acrt_update_thread_locale_data 00000001800159a8 f   libappcrt:locale_refcounting.obj
 0001:00014a1c       _updatetlocinfoEx_nolock   0000000180015a1c f   libappcrt:locale_refcounting.obj
 0001:00014a84       __acrt_fp_strflt_to_string 0000000180015a84 f   libappcrt:_fptostr.obj
 0001:00014b50       __acrt_fltout              0000000180015b50 f   libappcrt:cfout.obj
 0001:00016b6c       __acrt_stdio_flush_and_write_narrow_nolock 0000000180017b6c f   libappcrt:_flsbuf.obj
 0001:00016c70       __acrt_stdio_flush_and_write_wide_nolock 0000000180017c70 f   libappcrt:_flsbuf.obj
 0001:00016d74       _isatty                    0000000180017d74 f   libappcrt:isatty.obj
 0001:00016f7c       _lseeki64                  0000000180017f7c f   libappcrt:lseek.obj
 0001:00016f84       _lseeki64_nolock           0000000180017f84 f   libappcrt:lseek.obj
 0001:00016f8c       ??$?RV<lambda_ad0d618f8fc7178cbb9b4cac8054c445>@@AEAV<lambda_1307520d4d13bf9de0f9297d24bd96f6>@@V<lambda_c928f5e71c1aebcb9e89b1d1406cd29d>@@@?$__crt_seh_guarded_call@H@@QEAAH$$QEAV<lambda_ad0d618f8fc7178cbb9b4cac8054c445>@@AEAV<lambda_1307520d4d13bf9de0f9297d24bd96f6>@@$$QEAV<lambda_c928f5e71c1aebcb9e89b1d1406cd29d>@@@Z 0000000180017f8c f i libappcrt:close.obj
 0001:00017000       _close                     0000000180018000 f   libappcrt:close.obj
 0001:000170a4       _close_nolock              00000001800180a4 f   libappcrt:close.obj
 0001:00017160       ?__acrt_stdio_free_stream@@YAXV__crt_stdio_stream@@@Z 0000000180018160 f   libappcrt:stream.obj
 0001:000171a4       __strncnt                  00000001800181a4 f   libappcrt:strncnt.obj
 0001:000171bc       fesetenv                   00000001800181bc f   libappcrt:fesetenv.obj
 0001:00017208       feholdexcept               0000000180018208 f   libappcrt:feholdexcept.obj
 0001:00017258       ceil                       0000000180018258 f   libappcrt:ceil.obj
 0001:00017320       log10                      0000000180018320 f   libappcrt:log10.obj
 0001:000178cc       __acrt_stdio_allocate_buffer_nolock 00000001800188cc f   libappcrt:_getbuf.obj
 0001:00017930       fegetenv                   0000000180018930 f   libappcrt:fegetenv.obj
 0001:00017950       __get_machine_status       0000000180018950 f   libappcrt:_fenvutils.obj
 0001:00017980       _getfpcontrolword          0000000180018980 f   libappcrt:_fenvutils.obj
 0001:00017998       _getfpstatusword           0000000180018998 f   libappcrt:_fenvutils.obj
 0001:000179ac       _setfpcontrolword          00000001800189ac f   libappcrt:_fenvutils.obj
 0001:000179b8       _setfpstatusword           00000001800189b8 f   libappcrt:_fenvutils.obj
 0001:000179e8       _clearfp                   00000001800189e8 f   libappcrt:ieee.obj
 0001:00017a38       _controlfp                 0000000180018a38 f   libappcrt:ieee.obj
 0001:00017a44       _statusfp                  0000000180018a44 f   libappcrt:ieee.obj
 0001:00017e3c       _handle_error              0000000180018e3c f   libappcrt:libm_error.obj
 0001:00017f64       _handle_nan                0000000180018f64 f   libappcrt:libm_error.obj
 0001:00017f80       __acrt_initialize_fma3     0000000180018f80 f   libappcrt:fma3_available.obj
 0001:00017fc4       _log10_special             0000000180018fc4 f   libappcrt:log_special.obj
 0001:00018090       _get_fpsr                  0000000180019090 f   libappcrt:fpsr.obj
 0001:000180a0       _set_fpsr                  00000001800190a0 f   libappcrt:fpsr.obj
 0001:000180aa       _fclrf                     00000001800190aa f   libappcrt:fpsr.obj
 0001:000180be       _frnd                      00000001800190be f   libappcrt:fpsr.obj
 0001:000180e0       _raise_exc                 00000001800190e0 f   libappcrt:fpexcept.obj
 0001:00018108       _raise_exc_ex              0000000180019108 f   libappcrt:fpexcept.obj
 0001:00018410       _set_errno_from_matherr    0000000180019410 f   libappcrt:fpexcept.obj
 0001:00018440       _clrfp                     0000000180019440 f   libappcrt:fpctrl.obj
 0001:00018460       _ctrlfp                    0000000180019460 f   libappcrt:fpctrl.obj
 0001:000184dc       _set_statfp                00000001800194dc f   libappcrt:fpctrl.obj
 0001:000184fc       _statfp                    00000001800194fc f   libappcrt:fpctrl.obj
 0001:000186f4       __dcrt_initialize_narrow_environment_nolock 00000001800196f4 f   libdesktopcrt:environment_initialization.obj
 0001:000186fc       __dcrt_uninitialize_environments_nolock 00000001800196fc f   libdesktopcrt:environment_initialization.obj
 0001:00018734       __dcrt_initialize          0000000180019734 f   libdesktopcrt:initialization.obj
 0001:00018764       __acrt_uninitialize_command_line 0000000180019764 f   libappcrt:argv_data.obj
 0001:00018764       __dcrt_thread_detach       0000000180019764 f   libdesktopcrt:initialization.obj
 0001:00018764       __dcrt_thread_attach       0000000180019764 f   libdesktopcrt:initialization.obj
 0001:00018764       __scrt_dllmain_before_initialize_c 0000000180019764 f   LIBCMT:utility_static.obj
 0001:00018768       __dcrt_uninitialize        0000000180019768 f   libdesktopcrt:initialization.obj
 0001:00018784       __dcrt_uninitialize_critical 0000000180019784 f   libdesktopcrt:initialization.obj
 0001:00018794       _putwch_nolock             0000000180019794 f   libdesktopcrt:putwch.obj
 0001:000187f0       __dcrt_get_narrow_environment_from_os 00000001800197f0 f   libdesktopcrt:get_environment_from_os.obj
 0001:000188f4       __dcrt_getptd_noexit       00000001800198f4 f   libdesktopcrt:per_thread_data.obj
 0001:00018990       __dcrt_initialize_ptd      0000000180019990 f   libdesktopcrt:per_thread_data.obj
 0001:000189c8       __dcrt_uninitialize_ptd    00000001800199c8 f   libdesktopcrt:per_thread_data.obj
 0001:000189ec       __dcrt_lowio_initialize_console_output 00000001800199ec f   libdesktopcrt:initcon.obj
 0001:00018a28       __dcrt_terminate_console_output 0000000180019a28 f   libdesktopcrt:initcon.obj
 0001:00018a48       IsProcessorFeaturePresent  0000000180019a48 f   kernel32:KERNEL32.dll
 0001:00018a4e       RtlUnwindEx                0000000180019a4e f   kernel32:KERNEL32.dll
 0001:00018a54       ?DloadAcquireSectionWriteAccess@@YAXXZ 0000000180019a54 f i DelayImp:delayhlp.obj
 0001:00018af0       ?DloadGetSRWLockFunctionPointers@@YAEXZ 0000000180019af0 f i DelayImp:delayhlp.obj
 0001:00018b8c       ?DloadMakePermanentImageCommit@@YAXPEAX_K@Z 0000000180019b8c f i DelayImp:delayhlp.obj
 0001:00018c24       ?DloadObtainSection@@YAPEAXPEAK0@Z 0000000180019c24 f i DelayImp:delayhlp.obj
 0001:00018cbc       ?DloadProtectSection@@YAXKPEAK@Z 0000000180019cbc f i DelayImp:delayhlp.obj
 0001:00018d4c       ?DloadReleaseSectionWriteAccess@@YAXXZ 0000000180019d4c f i DelayImp:delayhlp.obj
 0001:00018dd4       __delayLoadHelper2         0000000180019dd4 f   DelayImp:delayhlp.obj
 0001:00019090       _FindPESection             000000018001a090 f   LIBCMT:pesect.obj
 0001:000190e0       _IsNonwritableInCurrentImage 000000018001a0e0 f   LIBCMT:pesect.obj
 0001:00019130       _ValidateImageBase         000000018001a130 f   LIBCMT:pesect.obj
 0001:00019160       __GSHandlerCheck           000000018001a160 f   LIBCMT:gshandler.obj
 0001:00019180       __GSHandlerCheckCommon     000000018001a180 f   LIBCMT:gshandler.obj
 0001:00019200       __chkstk                   000000018001a200 f   LIBCMT:chkstk.obj
 0001:00019200       _alloca_probe              000000018001a200 f   LIBCMT:chkstk.obj
 0001:00019250       __scrt_release_startup_lock 000000018001a250 f i LIBCMT:utility_static.obj
 0001:00019250       _guard_check_icall_nop     000000018001a250 f i LIBCMT:guard_support.obj
 0001:00019270       memmove                    000000018001a270 f   libvcruntime:memcpy.obj
 0001:00019270       memcpy                     000000018001a270 f   libvcruntime:memcpy.obj
 0001:00019880       memcmp                     000000018001a880 f   libvcruntime:memcmp.obj
 0001:00019948       strrchr                    000000018001a948 f   libvcruntime:strrchr.obj
 0001:00019aa0       _guard_dispatch_icall_nop  000000018001aaa0 f   LIBCMT:guard_dispatch.obj
 0002:00000000       __imp_GetLastError         000000018001b000     kernel32:KERNEL32.dll
 0002:00000008       __imp_GetProcAddress       000000018001b008     kernel32:KERNEL32.dll
 0002:00000010       __imp_LoadLibraryA         000000018001b010     kernel32:KERNEL32.dll
 0002:00000018       __imp_GetModuleHandleA     000000018001b018     kernel32:KERNEL32.dll
 0002:00000020       __imp_IsProcessorFeaturePresent 000000018001b020     kernel32:KERNEL32.dll
 0002:00000028       __imp_QueryPerformanceCounter 000000018001b028     kernel32:KERNEL32.dll
 0002:00000030       __imp_GetCurrentProcessId  000000018001b030     kernel32:KERNEL32.dll
 0002:00000038       __imp_GetCurrentThreadId   000000018001b038     kernel32:KERNEL32.dll
 0002:00000040       __imp_GetSystemTimeAsFileTime 000000018001b040     kernel32:KERNEL32.dll
 0002:00000048       __imp_InitializeSListHead  000000018001b048     kernel32:KERNEL32.dll
 0002:00000050       __imp_RtlCaptureContext    000000018001b050     kernel32:KERNEL32.dll
 0002:00000058       __imp_RtlLookupFunctionEntry 000000018001b058     kernel32:KERNEL32.dll
 0002:00000060       __imp_RtlVirtualUnwind     000000018001b060     kernel32:KERNEL32.dll
 0002:00000068       __imp_IsDebuggerPresent    000000018001b068     kernel32:KERNEL32.dll
 0002:00000070       __imp_UnhandledExceptionFilter 000000018001b070     kernel32:KERNEL32.dll
 0002:00000078       __imp_SetUnhandledExceptionFilter 000000018001b078     kernel32:KERNEL32.dll
 0002:00000080       __imp_GetModuleHandleW     000000018001b080     kernel32:KERNEL32.dll
 0002:00000088       __imp_RtlUnwindEx          000000018001b088     kernel32:KERNEL32.dll
 0002:00000090       __imp_InitializeCriticalSectionAndSpinCount 000000018001b090     kernel32:KERNEL32.dll
 0002:00000098       __imp_GetCurrentProcess    000000018001b098     kernel32:KERNEL32.dll
 0002:000000a0       __imp_TerminateProcess     000000018001b0a0     kernel32:KERNEL32.dll
 0002:000000a8       __imp_TlsAlloc             000000018001b0a8     kernel32:KERNEL32.dll
 0002:000000b0       __imp_TlsGetValue          000000018001b0b0     kernel32:KERNEL32.dll
 0002:000000b8       __imp_TlsSetValue          000000018001b0b8     kernel32:KERNEL32.dll
 0002:000000c0       __imp_TlsFree              000000018001b0c0     kernel32:KERNEL32.dll
 0002:000000c8       __imp_FreeLibrary          000000018001b0c8     kernel32:KERNEL32.dll
 0002:000000d0       __imp_LoadLibraryExW       000000018001b0d0     kernel32:KERNEL32.dll
 0002:000000d8       __imp_RtlPcToFileHeader    000000018001b0d8     kernel32:KERNEL32.dll
 0002:000000e0       __imp_RaiseException       000000018001b0e0     kernel32:KERNEL32.dll
 0002:000000e8       __imp_InterlockedFlushSList 000000018001b0e8     kernel32:KERNEL32.dll
 0002:000000f0       __imp_SetLastError         000000018001b0f0     kernel32:KERNEL32.dll
 0002:000000f8       __imp_EnterCriticalSection 000000018001b0f8     kernel32:KERNEL32.dll
 0002:00000100       __imp_LeaveCriticalSection 000000018001b100     kernel32:KERNEL32.dll
 0002:00000108       __imp_DeleteCriticalSection 000000018001b108     kernel32:KERNEL32.dll
 0002:00000110       __imp_EncodePointer        000000018001b110     kernel32:KERNEL32.dll
 0002:00000118       __imp_DecodePointer        000000018001b118     kernel32:KERNEL32.dll
 0002:00000120       __imp_OutputDebugStringW   000000018001b120     kernel32:KERNEL32.dll
 0002:00000128       __imp_GetModuleFileNameW   000000018001b128     kernel32:KERNEL32.dll
 0002:00000130       __imp_WriteConsoleW        000000018001b130     kernel32:KERNEL32.dll
 0002:00000138       __imp_HeapFree             000000018001b138     kernel32:KERNEL32.dll
 0002:00000140       __imp_HeapAlloc            000000018001b140     kernel32:KERNEL32.dll
 0002:00000148       __imp_WriteFile            000000018001b148     kernel32:KERNEL32.dll
 0002:00000150       __imp_CloseHandle          000000018001b150     kernel32:KERNEL32.dll
 0002:00000158       __imp_WaitForSingleObjectEx 000000018001b158     kernel32:KERNEL32.dll
 0002:00000160       __imp_CreateThread         000000018001b160     kernel32:KERNEL32.dll
 0002:00000168       __imp_LCMapStringW         000000018001b168     kernel32:KERNEL32.dll
 0002:00000170       __imp_GetStdHandle         000000018001b170     kernel32:KERNEL32.dll
 0002:00000178       __imp_GetFileType          000000018001b178     kernel32:KERNEL32.dll
 0002:00000180       __imp_MultiByteToWideChar  000000018001b180     kernel32:KERNEL32.dll
 0002:00000188       __imp_WideCharToMultiByte  000000018001b188     kernel32:KERNEL32.dll
 0002:00000190       __imp_GetACP               000000018001b190     kernel32:KERNEL32.dll
 0002:00000198       __imp_GetProcessHeap       000000018001b198     kernel32:KERNEL32.dll
 0002:000001a0       __imp_GetCommandLineA      000000018001b1a0     kernel32:KERNEL32.dll
 0002:000001a8       __imp_GetCommandLineW      000000018001b1a8     kernel32:KERNEL32.dll
 0002:000001b0       __imp_IsValidCodePage      000000018001b1b0     kernel32:KERNEL32.dll
 0002:000001b8       __imp_GetOEMCP             000000018001b1b8     kernel32:KERNEL32.dll
 0002:000001c0       __imp_GetCPInfo            000000018001b1c0     kernel32:KERNEL32.dll
 0002:000001c8       __imp_FlushFileBuffers     000000018001b1c8     kernel32:KERNEL32.dll
 0002:000001d0       __imp_GetConsoleCP         000000018001b1d0     kernel32:KERNEL32.dll
 0002:000001d8       __imp_HeapSize             000000018001b1d8     kernel32:KERNEL32.dll
 0002:000001e0       __imp_HeapReAlloc          000000018001b1e0     kernel32:KERNEL32.dll
 0002:000001e8       __imp_GetStringTypeW       000000018001b1e8     kernel32:KERNEL32.dll
 0002:000001f0       __imp_SetFilePointerEx     000000018001b1f0     kernel32:KERNEL32.dll
 0002:000001f8       __imp_GetEnvironmentStringsW 000000018001b1f8     kernel32:KERNEL32.dll
 0002:00000200       __imp_FreeEnvironmentStringsW 000000018001b200     kernel32:KERNEL32.dll
 0002:00000208       __imp_CreateFileW          000000018001b208     kernel32:KERNEL32.dll
 0002:00000210       __imp_GetSystemInfo        000000018001b210     kernel32:KERNEL32.dll
 0002:00000218       __imp_VirtualProtect       000000018001b218     kernel32:KERNEL32.dll
 0002:00000220       __imp_VirtualQuery         000000018001b220     kernel32:KERNEL32.dll
 0002:00000228       __imp_LoadLibraryExA       000000018001b228     kernel32:KERNEL32.dll
 0002:00000230       \177KERNEL32_NULL_THUNK_DATA 000000018001b230     kernel32:KERNEL32.dll
 0002:00000238       __guard_check_icall_fptr   000000018001b238     LIBCMT:guard_support.obj
 0002:00000240       __xc_a                     000000018001b240     LIBCMT:initializers.obj
 0002:00000278       _register_kerberos_        000000018001b278     kerberos.obj
 0002:00000280       __xc_z                     000000018001b280     LIBCMT:initializers.obj
 0002:00000288       __xi_a                     000000018001b288     LIBCMT:initializers.obj
 0002:00000290       __acrt_stdio_initializer   000000018001b290     libappcrt:stdio_initializer.obj
 0002:00000298       __acrt_multibyte_initializer 000000018001b298     libappcrt:multibyte_initializer.obj
 0002:000002a0       __acrt_tran_fma3_initializer 000000018001b2a0     libappcrt:fma3_initializer.obj
 0002:000002a8       __xi_z                     000000018001b2a8     LIBCMT:initializers.obj
 0002:000002b0       __xp_a                     000000018001b2b0     LIBCMT:initializers.obj
 0002:000002b8       __acrt_locale_terminator   000000018001b2b8     libappcrt:locale_initializer.obj
 0002:000002c0       __dcrt_console_output_terminator 000000018001b2c0     libdesktopcrt:console_output_initializer.obj
 0002:000002c8       __acrt_stdio_terminator    000000018001b2c8     libappcrt:stdio_initializer.obj
 0002:000002d0       __xp_z                     000000018001b2d0     LIBCMT:initializers.obj
 0002:000002d8       __xt_a                     000000018001b2d8     LIBCMT:initializers.obj
 0002:000002e0       __xt_z                     000000018001b2e0     LIBCMT:initializers.obj
 0002:00000330       __sz_node_exe              000000018001b330     node:node.exe
 0002:00000340       _pRawDllMain               000000018001b340     LIBCMT:dll_dllmain.obj
 0002:00000340       _pDefaultRawDllMain        000000018001b340     LIBCMT:dll_dllmain.obj
 0002:00000360       ??_7exception@std@@6B@     000000018001b360     LIBCMT:throw_bad_alloc.obj
 0002:00000370       ??_C@_0BC@EOODALEL@Unknown?5exception?$AA@ 000000018001b370     LIBCMT:throw_bad_alloc.obj
 0002:00000390       ??_7bad_alloc@std@@6B@     000000018001b390     LIBCMT:throw_bad_alloc.obj
 0002:000003a0       ??_C@_0P@GHFPNOJB@bad?5allocation?$AA@ 000000018001b3a0     LIBCMT:throw_bad_alloc.obj
 0002:000003b8       ??_7bad_array_new_length@std@@6B@ 000000018001b3b8     LIBCMT:throw_bad_alloc.obj
 0002:000003c8       ??_C@_0BF@KINCDENJ@bad?5array?5new?5length?$AA@ 000000018001b3c8     LIBCMT:throw_bad_alloc.obj
 0002:000003e8       ??_7type_info@@6B@         000000018001b3e8     LIBCMT:std_type_info_static.obj
 0002:00000408       ??_C@_1DM@KHCHBNEB@?$AAa?$AAp?$AAi?$AA?9?$AAm?$AAs?$AA?9?$AAw?$AAi?$AAn?$AA?9?$AAc?$AAo?$AAr?$AAe?$AA?9?$AAf?$AAi?$AAb?$AAe?$AAr?$AAs?$AA?9?$AAl?$AA1?$AA?9?$AA1?$AA?9?$AA1?$AA?$AA@ 000000018001b408     libvcruntime:winapi_downlevel.obj
 0002:00000448       ??_C@_1DK@LPPGFMPP@?$AAa?$AAp?$AAi?$AA?9?$AAm?$AAs?$AA?9?$AAw?$AAi?$AAn?$AA?9?$AAc?$AAo?$AAr?$AAe?$AA?9?$AAs?$AAy?$AAn?$AAc?$AAh?$AA?9?$AAl?$AA1?$AA?9?$AA2?$AA?9?$AA0?$AA?$AA@ 000000018001b448     libvcruntime:winapi_downlevel.obj
 0002:00000488       ??_C@_1BC@GDMECMAK@?$AAk?$AAe?$AAr?$AAn?$AAe?$AAl?$AA3?$AA2?$AA?$AA@ 000000018001b488     libvcruntime:winapi_downlevel.obj
 0002:000004a8       ??_C@_08KNHFBNJ@FlsAlloc?$AA@ 000000018001b4a8     libvcruntime:winapi_downlevel.obj
 0002:000004c0       ??_C@_07PEJMOBNF@FlsFree?$AA@ 000000018001b4c0     libvcruntime:winapi_downlevel.obj
 0002:000004d0       ??_C@_0M@GDNOONDI@FlsGetValue?$AA@ 000000018001b4d0     libvcruntime:winapi_downlevel.obj
 0002:000004e8       ??_C@_0M@JCPCPOEF@FlsSetValue?$AA@ 000000018001b4e8     libvcruntime:winapi_downlevel.obj
 0002:00000500       ??_C@_0BM@HCFOFFN@InitializeCriticalSectionEx?$AA@ 000000018001b500     libvcruntime:winapi_downlevel.obj
 0002:00000880       ??_C@_08EHJDFFNH@__based?$CI?$AA@ 000000018001b880     libvcruntime:undname.obj
 0002:00000890       ??_C@_07KOLFKCDI@__cdecl?$AA@ 000000018001b890     libvcruntime:undname.obj
 0002:00000898       ??_C@_08GHMPAG@__pascal?$AA@ 000000018001b898     libvcruntime:undname.obj
 0002:000008a8       ??_C@_09IFJBGAPI@__stdcall?$AA@ 000000018001b8a8     libvcruntime:undname.obj
 0002:000008b8       ??_C@_0L@NPHFGOKO@__thiscall?$AA@ 000000018001b8b8     libvcruntime:undname.obj
 0002:000008c8       ??_C@_0L@JMKHOMEK@__fastcall?$AA@ 000000018001b8c8     libvcruntime:undname.obj
 0002:000008d8       ??_C@_0N@BCKKPABJ@__vectorcall?$AA@ 000000018001b8d8     libvcruntime:undname.obj
 0002:000008e8       ??_C@_09HIJEGCPM@__clrcall?$AA@ 000000018001b8e8     libvcruntime:undname.obj
 0002:000008f4       ??_C@_06GHPCKEAG@__eabi?$AA@ 000000018001b8f4     libvcruntime:undname.obj
 0002:00000900       ??_C@_07JOMMBBKO@__ptr64?$AA@ 000000018001b900     libvcruntime:undname.obj
 0002:00000908       ??_C@_0L@PILCLIHE@__restrict?$AA@ 000000018001b908     libvcruntime:undname.obj
 0002:00000918       ??_C@_0M@GFIIJFMG@__unaligned?$AA@ 000000018001b918     libvcruntime:undname.obj
 0002:00000928       ??_C@_09DHDLOLLB@restrict?$CI?$AA@ 000000018001b928     libvcruntime:undname.obj
 0002:00000932       ??_C@_00CNPNBAHC@?$AA@     000000018001b932     libvcruntime:undname.obj
 0002:00000934       ??_C@_04NIHEBCM@?5new?$AA@ 000000018001b934     libvcruntime:undname.obj
 0002:00000940       ??_C@_07FPCDHGMM@?5delete?$AA@ 000000018001b940     libvcruntime:undname.obj
 0002:00000948       ??_C@_01NEMOKFLO@?$DN?$AA@ 000000018001b948     libvcruntime:undname.obj
 0002:0000094c       ??_C@_02GPIOPFAK@?$DO?$DO?$AA@ 000000018001b94c     libvcruntime:undname.obj
 0002:00000950       ??_C@_02FODMEDOG@?$DM?$DM?$AA@ 000000018001b950     libvcruntime:undname.obj
 0002:00000954       ??_C@_01DCLJPIOD@?$CB?$AA@ 000000018001b954     libvcruntime:undname.obj
 0002:00000958       ??_C@_02EGOFBIJA@?$DN?$DN?$AA@ 000000018001b958     libvcruntime:undname.obj
 0002:0000095c       ??_C@_02FDNJECIE@?$CB?$DN?$AA@ 000000018001b95c     libvcruntime:undname.obj
 0002:00000960       ??_C@_02GPECMEKF@?$FL?$FN?$AA@ 000000018001b960     libvcruntime:undname.obj
 0002:00000968       ??_C@_08LHJFAFGD@operator?$AA@ 000000018001b968     libvcruntime:undname.obj
 0002:00000974       ??_C@_02HBOOOICD@?9?$DO?$AA@ 000000018001b974     libvcruntime:undname.obj
 0002:00000978       ??_C@_01NBENCBCI@?$CK?$AA@ 000000018001b978     libvcruntime:undname.obj
 0002:0000097c       ??_C@_02ECNGHCIF@?$CL?$CL?$AA@ 000000018001b97c     libvcruntime:undname.obj
 0002:00000980       ??_C@_02BAABKJLB@?9?9?$AA@ 000000018001b980     libvcruntime:undname.obj
 0002:00000984       ??_C@_01JOAMLHOP@?9?$AA@   000000018001b984     libvcruntime:undname.obj
 0002:00000988       ??_C@_01MIFGBAGJ@?$CL?$AA@ 000000018001b988     libvcruntime:undname.obj
 0002:0000098c       ??_C@_01HNPIGOCE@?$CG?$AA@ 000000018001b98c     libvcruntime:undname.obj
 0002:00000990       ??_C@_03MNHNFDLC@?9?$DO?$CK?$AA@ 000000018001b990     libvcruntime:undname.obj
 0002:00000994       ??_C@_01KMDKNFGN@?1?$AA@   000000018001b994     libvcruntime:undname.obj
 0002:00000998       ??_C@_01FGNFDNOH@?$CF?$AA@ 000000018001b998     libvcruntime:undname.obj
 0002:0000099c       ??_C@_01MNNFJEPP@?$DM?$AA@ 000000018001b99c     libvcruntime:undname.obj
 0002:000009a0       ??_C@_02EHCHHCKH@?$DM?$DN?$AA@ 000000018001b9a0     libvcruntime:undname.obj
 0002:000009a4       ??_C@_01PPODPGHN@?$DO?$AA@ 000000018001b9a4     libvcruntime:undname.obj
 0002:000009a8       ??_C@_02EEKDKGMJ@?$DO?$DN?$AA@ 000000018001b9a8     libvcruntime:undname.obj
 0002:000009ac       ??_C@_01IHBHIGKO@?0?$AA@   000000018001b9ac     libvcruntime:undname.obj
 0002:000009b0       ??_C@_02HCKGKOFO@?$CI?$CJ?$AA@ 000000018001b9b0     libvcruntime:undname.obj
 0002:000009b4       ??_C@_01PJKLJHI@?$HO?$AA@  000000018001b9b4     libvcruntime:undname.obj
 0002:000009b8       ??_C@_01JKBOJNNK@?$FO?$AA@ 000000018001b9b8     libvcruntime:undname.obj
 0002:000009bc       ??_C@_01DNKMNLPK@?$HM?$AA@ 000000018001b9bc     libvcruntime:undname.obj
 0002:000009c0       ??_C@_02PPKAJPJL@?$CG?$CG?$AA@ 000000018001b9c0     libvcruntime:undname.obj
 0002:000009c4       ??_C@_02NONPIBCD@?$HM?$HM?$AA@ 000000018001b9c4     libvcruntime:undname.obj
 0002:000009c8       ??_C@_02FPIMKNGF@?$CK?$DN?$AA@ 000000018001b9c8     libvcruntime:undname.obj
 0002:000009cc       ??_C@_02FOEOMHFC@?$CL?$DN?$AA@ 000000018001b9cc     libvcruntime:undname.obj
 0002:000009d0       ??_C@_02FKMDLLOA@?9?$DN?$AA@ 000000018001b9d0     libvcruntime:undname.obj
 0002:000009d4       ??_C@_02FJEHGPIO@?1?$DN?$AA@ 000000018001b9d4     libvcruntime:undname.obj
 0002:000009d8       ??_C@_02FENAOKFI@?$CF?$DN?$AA@ 000000018001b9d8     libvcruntime:undname.obj
 0002:000009dc       ??_C@_03IKFCCPFF@?$DO?$DO?$DN?$AA@ 000000018001b9dc     libvcruntime:undname.obj
 0002:000009e0       ??_C@_03CDNPDDLA@?$DM?$DM?$DN?$AA@ 000000018001b9e0     libvcruntime:undname.obj
 0002:000009e4       ??_C@_02FGJGFEAB@?$CG?$DN?$AA@ 000000018001b9e4     libvcruntime:undname.obj
 0002:000009e8       ??_C@_02DHLNPPGH@?$HM?$DN?$AA@ 000000018001b9e8     libvcruntime:undname.obj
 0002:000009ec       ??_C@_02MHEGNOJ@?$FO?$DN?$AA@ 000000018001b9ec     libvcruntime:undname.obj
 0002:000009f0       ??_C@_09IFPLHPGF@?$GAvftable?8?$AA@ 000000018001b9f0     libvcruntime:undname.obj
 0002:00000a00       ??_C@_09BLBHBJP@?$GAvbtable?8?$AA@ 000000018001ba00     libvcruntime:undname.obj
 0002:00000a10       ??_C@_07FEEIOKP@?$GAvcall?8?$AA@ 000000018001ba10     libvcruntime:undname.obj
 0002:00000a18       ??_C@_08LLFFHHDJ@?$GAtypeof?8?$AA@ 000000018001ba18     libvcruntime:undname.obj
 0002:00000a28       ??_C@_0BF@KDPPACIK@?$GAlocal?5static?5guard?8?$AA@ 000000018001ba28     libvcruntime:undname.obj
 0002:00000a40       ??_C@_08OBABFOLI@?$GAstring?8?$AA@ 000000018001ba40     libvcruntime:undname.obj
 0002:00000a50       ??_C@_0BD@JDLKDPAB@?$GAvbase?5destructor?8?$AA@ 000000018001ba50     libvcruntime:undname.obj
 0002:00000a68       ??_C@_0BN@DEGPLNFK@?$GAvector?5deleting?5destructor?8?$AA@ 000000018001ba68     libvcruntime:undname.obj
 0002:00000a88       ??_C@_0BO@OBMKPJIG@?$GAdefault?5constructor?5closure?8?$AA@ 000000018001ba88     libvcruntime:undname.obj
 0002:00000aa8       ??_C@_0BN@IMDCHIKM@?$GAscalar?5deleting?5destructor?8?$AA@ 000000018001baa8     libvcruntime:undname.obj
 0002:00000ac8       ??_C@_0BO@PFGOCPJJ@?$GAvector?5constructor?5iterator?8?$AA@ 000000018001bac8     libvcruntime:undname.obj
 0002:00000ae8       ??_C@_0BN@LFPFMEDL@?$GAvector?5destructor?5iterator?8?$AA@ 000000018001bae8     libvcruntime:undname.obj
 0002:00000b08       ??_C@_0CE@IKBNEHA@?$GAvector?5vbase?5constructor?5iterat@ 000000018001bb08     libvcruntime:undname.obj
 0002:00000b30       ??_C@_0BL@NILFHHPC@?$GAvirtual?5displacement?5map?8?$AA@ 000000018001bb30     libvcruntime:undname.obj
 0002:00000b50       ??_C@_0CB@JONCMFFK@?$GAeh?5vector?5constructor?5iterator?8@ 000000018001bb50     libvcruntime:undname.obj
 0002:00000b78       ??_C@_0CA@GCEOPDGL@?$GAeh?5vector?5destructor?5iterator?8?$AA@ 000000018001bb78     libvcruntime:undname.obj
 0002:00000b98       ??_C@_0CH@OOJPLCPH@?$GAeh?5vector?5vbase?5constructor?5ite@ 000000018001bb98     libvcruntime:undname.obj
 0002:00000bc0       ??_C@_0BL@LLKPOHJI@?$GAcopy?5constructor?5closure?8?$AA@ 000000018001bbc0     libvcruntime:undname.obj
 0002:00000be0       ??_C@_0BA@KBCDOMBN@?$GAudt?5returning?8?$AA@ 000000018001bbe0     libvcruntime:undname.obj
 0002:00000bf0       ??_C@_03KLGMFNMG@?$GAEH?$AA@ 000000018001bbf0     libvcruntime:undname.obj
 0002:00000bf4       ??_C@_05KHLCHHI@?$GARTTI?$AA@ 000000018001bbf4     libvcruntime:undname.obj
 0002:00000c00       ??_C@_0BA@KKLDJDLB@?$GAlocal?5vftable?8?$AA@ 000000018001bc00     libvcruntime:undname.obj
 0002:00000c10       ??_C@_0CE@IIHCMGGL@?$GAlocal?5vftable?5constructor?5closu@ 000000018001bc10     libvcruntime:undname.obj
 0002:00000c34       ??_C@_06FHBGPFGH@?5new?$FL?$FN?$AA@ 000000018001bc34     libvcruntime:undname.obj
 0002:00000c40       ??_C@_09LBNFPBCA@?5delete?$FL?$FN?$AA@ 000000018001bc40     libvcruntime:undname.obj
 0002:00000c50       ??_C@_0P@HJKNJFNN@?$GAomni?5callsig?8?$AA@ 000000018001bc50     libvcruntime:undname.obj
 0002:00000c60       ??_C@_0BL@CNOONJFP@?$GAplacement?5delete?5closure?8?$AA@ 000000018001bc60     libvcruntime:undname.obj
 0002:00000c80       ??_C@_0BN@CKNJLHMB@?$GAplacement?5delete?$FL?$FN?5closure?8?$AA@ 000000018001bc80     libvcruntime:undname.obj
 0002:00000ca0       ??_C@_0CG@CFDHKGGD@?$GAmanaged?5vector?5constructor?5iter@ 000000018001bca0     libvcruntime:undname.obj
 0002:00000cc8       ??_C@_0CF@IMGKMJNO@?$GAmanaged?5vector?5destructor?5itera@ 000000018001bcc8     libvcruntime:undname.obj
 0002:00000cf0       ??_C@_0CG@HLDDJMAG@?$GAeh?5vector?5copy?5constructor?5iter@ 000000018001bcf0     libvcruntime:undname.obj
 0002:00000d18       ??_C@_0CM@FCBBDIGB@?$GAeh?5vector?5vbase?5copy?5constructo@ 000000018001bd18     libvcruntime:undname.obj
 0002:00000d48       ??_C@_0BL@CLIPGLGB@?$GAdynamic?5initializer?5for?5?8?$AA@ 000000018001bd48     libvcruntime:undname.obj
 0002:00000d68       ??_C@_0CB@PDBIFEP@?$GAdynamic?5atexit?5destructor?5for?5?8@ 000000018001bd68     libvcruntime:undname.obj
 0002:00000d90       ??_C@_0CD@CGAJBKEJ@?$GAvector?5copy?5constructor?5iterato@ 000000018001bd90     libvcruntime:undname.obj
 0002:00000db8       ??_C@_0CJ@GJELGAMM@?$GAvector?5vbase?5copy?5constructor?5i@ 000000018001bdb8     libvcruntime:undname.obj
 0002:00000de8       ??_C@_0CL@FGIJHLCE@?$GAmanaged?5vector?5copy?5constructor@ 000000018001bde8     libvcruntime:undname.obj
 0002:00000e18       ??_C@_0BM@PMGGMLDN@?$GAlocal?5static?5thread?5guard?8?$AA@ 000000018001be18     libvcruntime:undname.obj
 0002:00000e38       ??_C@_0N@BDNMDMOL@operator?5?$CC?$CC?5?$AA@ 000000018001be38     libvcruntime:undname.obj
 0002:00000e48       ??_C@_0BC@DAFEJGAK@?5Type?5Descriptor?8?$AA@ 000000018001be48     libvcruntime:undname.obj
 0002:00000e60       ??_C@_0BM@LDKODKLH@?5Base?5Class?5Descriptor?5at?5?$CI?$AA@ 000000018001be60     libvcruntime:undname.obj
 0002:00000e80       ??_C@_0BD@LGICGFMM@?5Base?5Class?5Array?8?$AA@ 000000018001be80     libvcruntime:undname.obj
 0002:00000e98       ??_C@_0BN@MECKDCOJ@?5Class?5Hierarchy?5Descriptor?8?$AA@ 000000018001be98     libvcruntime:undname.obj
 0002:00000eb8       ??_C@_0BK@CFCOFLF@?5Complete?5Object?5Locator?8?$AA@ 000000018001beb8     libvcruntime:undname.obj
 0002:00000ee0       ??_C@_1EK@MBDPDCGA@?$AAM?$AAi?$AAc?$AAr?$AAo?$AAs?$AAo?$AAf?$AAt?$AA?5?$AAV?$AAi?$AAs?$AAu?$AAa?$AAl?$AA?5?$AAC?$AA?$CL?$AA?$CL?$AA?5?$AAR?$AAu?$AAn?$AAt?$AAi?$AAm?$AAe?$AA?5?$AAL?$AAi?$AAb@ 000000018001bee0     libappcrt:assert.obj
 0002:00000f30       ??_C@_1FE@LHBLIKM@?$AAA?$AAs?$AAs?$AAe?$AAr?$AAt?$AAi?$AAo?$AAn?$AA?5?$AAf?$AAa?$AAi?$AAl?$AAe?$AAd?$AA?3?$AA?5?$AA?$CF?$AAT?$AAs?$AA?0?$AA?5?$AAf?$AAi?$AAl?$AAe?$AA?5?$AA?$CF?$AAT?$AAs?$AA?0@ 000000018001bf30     libappcrt:assert.obj
 0002:00000f88       ??_C@_1CE@OJBNHDMO@?$AAA?$AAs?$AAs?$AAe?$AAr?$AAt?$AAi?$AAo?$AAn?$AA?5?$AAf?$AAa?$AAi?$AAl?$AAe?$AAd?$AA?$CB?$AA?$AA@ 000000018001bf88     libappcrt:assert.obj
 0002:00000fb0       ??_C@_1BE@PHKBBGE@?$AAP?$AAr?$AAo?$AAg?$AAr?$AAa?$AAm?$AA?3?$AA?5?$AA?$AA@ 000000018001bfb0     libappcrt:assert.obj
 0002:00000fc8       ??_C@_1O@HEMHKNDC@?$AAF?$AAi?$AAl?$AAe?$AA?3?$AA?5?$AA?$AA@ 000000018001bfc8     libappcrt:assert.obj
 0002:00000fd8       ??_C@_1O@KCAFKHJE@?$AAL?$AAi?$AAn?$AAe?$AA?3?$AA?5?$AA?$AA@ 000000018001bfd8     libappcrt:assert.obj
 0002:00000fe8       ??_C@_1BK@PEDCIPMA@?$AAE?$AAx?$AAp?$AAr?$AAe?$AAs?$AAs?$AAi?$AAo?$AAn?$AA?3?$AA?5?$AA?$AA@ 000000018001bfe8     libappcrt:assert.obj
 0002:00001010       ??_C@_1OA@EGMLFBHJ@?$AAF?$AAo?$AAr?$AA?5?$AAi?$AAn?$AAf?$AAo?$AAr?$AAm?$AAa?$AAt?$AAi?$AAo?$AAn?$AA?5?$AAo?$AAn?$AA?5?$AAh?$AAo?$AAw?$AA?5?$AAy?$AAo?$AAu?$AAr?$AA?5?$AAp?$AAr?$AAo?$AAg@ 000000018001c010     libappcrt:assert.obj
 0002:000010f0       ??_C@_1HK@POCJMFGK@?$AA?$CI?$AAP?$AAr?$AAe?$AAs?$AAs?$AA?5?$AAR?$AAe?$AAt?$AAr?$AAy?$AA?5?$AAt?$AAo?$AA?5?$AAd?$AAe?$AAb?$AAu?$AAg?$AA?5?$AAt?$AAh?$AAe?$AA?5?$AAa?$AAp?$AAp?$AAl?$AAi?$AAc@ 000000018001c0f0     libappcrt:assert.obj
 0002:00001170       ??_C@_17LGKOMLJ@?$AA?4?$AA?4?$AA?4?$AA?$AA@ 000000018001c170     libappcrt:assert.obj
 0002:00001178       ??_C@_13LBAGMAIH@?$AA?6?$AA?$AA@ 000000018001c178     libappcrt:assert.obj
 0002:0000117c       ??_C@_15IABLJNFO@?$AA?6?$AA?6?$AA?$AA@ 000000018001c17c     libappcrt:assert.obj
 0002:00001188       ??_C@_1BI@JBDNBBGL@?$AAA?$AAp?$AAp?$AAl?$AAi?$AAc?$AAa?$AAt?$AAi?$AAo?$AAn?$AA?$AA@ 000000018001c188     libappcrt:assert.obj
 0002:000011a0       ??_C@_1CO@EAEJAADC@?$AA?$DM?$AAp?$AAr?$AAo?$AAg?$AAr?$AAa?$AAm?$AA?5?$AAn?$AAa?$AAm?$AAe?$AA?5?$AAu?$AAn?$AAk?$AAn?$AAo?$AAw?$AAn?$AA?$DO?$AA?$AA@ 000000018001c1a0     libappcrt:assert.obj
 0002:000011d0       standard_lookup_table      000000018001c1d0     libappcrt:output.obj
 0002:00001230       ??_C@_1O@CEDCILHN@?$AA?$CI?$AAn?$AAu?$AAl?$AAl?$AA?$CJ?$AA?$AA@ 000000018001c230     libappcrt:output.obj
 0002:00001240       ??_C@_06OJHGLDPL@?$CInull?$CJ?$AA@ 000000018001c240     libappcrt:output.obj
 0002:00001250       __acrt_exception_action_table 000000018001c250     libappcrt:exception_filter.obj
 0002:00001310       __acrt_signal_action_table_count 000000018001c310     libappcrt:exception_filter.obj
 0002:00001318       __acrt_signal_action_table_size 000000018001c318     libappcrt:exception_filter.obj
 0002:00001320       __acrt_signal_action_first_fpe_index 000000018001c320     libappcrt:exception_filter.obj
 0002:00001328       __acrt_signal_action_fpe_count 000000018001c328     libappcrt:exception_filter.obj
 0002:00001330       ??_C@_1BI@BGOHAHKC@?$AAm?$AAs?$AAc?$AAo?$AAr?$AAe?$AAe?$AA?4?$AAd?$AAl?$AAl?$AA?$AA@ 000000018001c330     libappcrt:exit.obj
 0002:00001348       ??_C@_0P@MIGLKIOC@CorExitProcess?$AA@ 000000018001c348     libappcrt:exit.obj
 0002:00001498       ??_C@_15JNBOKNOG@?$AA?$AN?$AA?6?$AA?$AA@ 000000018001c498     libappcrt:report_runtime_error.obj
 0002:000014a0       ??_C@_1BM@MEBKMGAI@?$AAr?$AAu?$AAn?$AAt?$AAi?$AAm?$AAe?$AA?5?$AAe?$AAr?$AAr?$AAo?$AAr?$AA?$AA@ 000000018001c4a0     libappcrt:report_runtime_error.obj
 0002:000014c0       ??_C@_1FE@LLNEDJMD@?$AAR?$AA6?$AA0?$AA0?$AA8?$AA?$AN?$AA?6?$AA?9?$AA?5?$AAn?$AAo?$AAt?$AA?5?$AAe?$AAn?$AAo?$AAu?$AAg?$AAh?$AA?5?$AAs?$AAp?$AAa?$AAc?$AAe?$AA?5?$AAf?$AAo?$AAr?$AA?5?$AAa?$AAr@ 000000018001c4c0     libappcrt:report_runtime_error.obj
 0002:00001520       ??_C@_1FI@HONFMGBI@?$AAR?$AA6?$AA0?$AA0?$AA9?$AA?$AN?$AA?6?$AA?9?$AA?5?$AAn?$AAo?$AAt?$AA?5?$AAe?$AAn?$AAo?$AAu?$AAg?$AAh?$AA?5?$AAs?$AAp?$AAa?$AAc?$AAe?$AA?5?$AAf?$AAo?$AAr?$AA?5?$AAe?$AAn@ 000000018001c520     libappcrt:report_runtime_error.obj
 0002:00001580       ??_C@_1EG@BEHAGFJD@?$AAR?$AA6?$AA0?$AA1?$AA0?$AA?$AN?$AA?6?$AA?9?$AA?5?$AAa?$AAb?$AAo?$AAr?$AAt?$AA?$CI?$AA?$CJ?$AA?5?$AAh?$AAa?$AAs?$AA?5?$AAb?$AAe?$AAe?$AAn?$AA?5?$AAc?$AAa?$AAl?$AAl?$AAe?$AAd@ 000000018001c580     libappcrt:report_runtime_error.obj
 0002:000015d0       ??_C@_1FI@LOGNIKDM@?$AAR?$AA6?$AA0?$AA1?$AA6?$AA?$AN?$AA?6?$AA?9?$AA?5?$AAn?$AAo?$AAt?$AA?5?$AAe?$AAn?$AAo?$AAu?$AAg?$AAh?$AA?5?$AAs?$AAp?$AAa?$AAc?$AAe?$AA?5?$AAf?$AAo?$AAr?$AA?5?$AAt?$AAh@ 000000018001c5d0     libappcrt:report_runtime_error.obj
 0002:00001630       ??_C@_1EM@MAADIHMB@?$AAR?$AA6?$AA0?$AA2?$AA5?$AA?$AN?$AA?6?$AA?9?$AA?5?$AAp?$AAu?$AAr?$AAe?$AA?5?$AAv?$AAi?$AAr?$AAt?$AAu?$AAa?$AAl?$AA?5?$AAf?$AAu?$AAn?$AAc?$AAt?$AAi?$AAo?$AAn?$AA?5?$AAc@ 000000018001c630     libappcrt:report_runtime_error.obj
 0002:00001680       ??_C@_1GK@MCAAGJMO@?$AAR?$AA6?$AA0?$AA2?$AA6?$AA?$AN?$AA?6?$AA?9?$AA?5?$AAn?$AAo?$AAt?$AA?5?$AAe?$AAn?$AAo?$AAu?$AAg?$AAh?$AA?5?$AAs?$AAp?$AAa?$AAc?$AAe?$AA?5?$AAf?$AAo?$AAr?$AA?5?$AAs?$AAt@ 000000018001c680     libappcrt:report_runtime_error.obj
 0002:000016f0       ??_C@_1MG@ENCOOIDF@?$AAR?$AA6?$AA0?$AA3?$AA1?$AA?$AN?$AA?6?$AA?9?$AA?5?$AAA?$AAt?$AAt?$AAe?$AAm?$AAp?$AAt?$AA?5?$AAt?$AAo?$AA?5?$AAi?$AAn?$AAi?$AAt?$AAi?$AAa?$AAl?$AAi?$AAz?$AAe?$AA?5?$AAt@ 000000018001c6f0     libappcrt:report_runtime_error.obj
 0002:000017c0       ??_C@_1GG@GOPILAJP@?$AAR?$AA6?$AA0?$AA3?$AA2?$AA?$AN?$AA?6?$AA?9?$AA?5?$AAn?$AAo?$AAt?$AA?5?$AAe?$AAn?$AAo?$AAu?$AAg?$AAh?$AA?5?$AAs?$AAp?$AAa?$AAc?$AAe?$AA?5?$AAf?$AAo?$AAr?$AA?5?$AAl?$AAo@ 000000018001c7c0     libappcrt:report_runtime_error.obj
 0002:00001830       ??_C@_1BPA@KHLFDDGH@?$AAR?$AA6?$AA0?$AA3?$AA3?$AA?$AN?$AA?6?$AA?9?$AA?5?$AAA?$AAt?$AAt?$AAe?$AAm?$AAp?$AAt?$AA?5?$AAt?$AAo?$AA?5?$AAu?$AAs?$AAe?$AA?5?$AAM?$AAS?$AAI?$AAL?$AA?5?$AAc?$AAo?$AAd@ 000000018001c830     libappcrt:report_runtime_error.obj
 0002:00001a20       ??_C@_1DE@JNGNBFGO@?$AAR?$AAu?$AAn?$AAt?$AAi?$AAm?$AAe?$AA?5?$AAE?$AAr?$AAr?$AAo?$AAr?$AA?$CB?$AA?6?$AA?6?$AAP?$AAr?$AAo?$AAg?$AAr?$AAa?$AAm?$AA?3?$AA?5?$AA?$AA@ 000000018001ca20     libappcrt:report_runtime_error.obj
 0002:00001a58       ??_C@_1BG@OILDLIOJ@?$AAu?$AAs?$AAe?$AAr?$AA3?$AA2?$AA?4?$AAd?$AAl?$AAl?$AA?$AA@ 000000018001ca58     libappcrt:crtmbox.obj
 0002:00001a70       ??_C@_0M@CHKKJDAI@MessageBoxA?$AA@ 000000018001ca70     libappcrt:crtmbox.obj
 0002:00001a80       ??_C@_0M@DLDCCGNP@MessageBoxW?$AA@ 000000018001ca80     libappcrt:crtmbox.obj
 0002:00001a90       ??_C@_0BA@HNOPNCHB@GetActiveWindow?$AA@ 000000018001ca90     libappcrt:crtmbox.obj
 0002:00001aa0       ??_C@_0BD@HHGDFDBJ@GetLastActivePopup?$AA@ 000000018001caa0     libappcrt:crtmbox.obj
 0002:00001ab8       ??_C@_0BI@DFKBFLJE@GetProcessWindowStation?$AA@ 000000018001cab8     libappcrt:crtmbox.obj
 0002:00001ad0       ??_C@_0BK@DEKFELLI@GetUserObjectInformationW?$AA@ 000000018001cad0     libappcrt:crtmbox.obj
 0002:00001b00       ??_C@_1BM@DHLOIGAF@?$AAd?$AAe?$AAs?$AAk?$AAt?$AAo?$AAp?$AAc?$AAr?$AAt?$AA1?$AA4?$AA0?$AA?$AA@ 000000018001cb00     libappcrt:winapi_nonmsdk.obj
 0002:00001b20       ??_C@_1IE@DPOBFOCO@?$AAf?$AA?3?$AA?2?$AAd?$AAd?$AA?2?$AAv?$AAc?$AAt?$AAo?$AAo?$AAl?$AAs?$AA?2?$AAc?$AAr?$AAt?$AA?2?$AAc?$AAo?$AAr?$AAe?$AA_?$AAc?$AAr?$AAt?$AA?2?$AAs?$AAr?$AAc?$AA?2?$AAa@ 000000018001cb20     libappcrt:winapi_nonmsdk.obj
 0002:00001ba8       ??_C@_1DE@BGAHDCHK@?$AAg?$AAe?$AAt?$AA_?$AAo?$AAr?$AA_?$AAl?$AAo?$AAa?$AAd?$AA_?$AAm?$AAo?$AAd?$AAu?$AAl?$AAe?$AA_?$AAh?$AAa?$AAn?$AAd?$AAl?$AAe?$AA?$AA@ 000000018001cba8     libappcrt:winapi_nonmsdk.obj
 0002:00001be0       ??_C@_1DA@CPCFAPPM@?$AAl?$AAo?$AAa?$AAd?$AA_?$AAl?$AAi?$AAb?$AAr?$AAa?$AAr?$AAy?$AA?5?$AA?$CB?$AA?$DN?$AA?5?$AAn?$AAu?$AAl?$AAl?$AAp?$AAt?$AAr?$AA?$AA@ 000000018001cbe0     libappcrt:winapi_nonmsdk.obj
 0002:00001c10       ??_C@_1CM@NDLOHEDL@?$AAo?$AAu?$AAr?$AA_?$AAh?$AAa?$AAn?$AAd?$AAl?$AAe?$AA?5?$AA?$CB?$AA?$DN?$AA?5?$AAn?$AAu?$AAl?$AAl?$AAp?$AAt?$AAr?$AA?$AA@ 000000018001cc10     libappcrt:winapi_nonmsdk.obj
 0002:00001c40       ??_C@_1DI@NDGAJFDD@?$AAc?$AAa?$AAc?$AAh?$AAe?$AAd?$AA_?$AAh?$AAa?$AAn?$AAd?$AAl?$AAe?$AA?5?$AA?$DN?$AA?$DN?$AA?5?$AAo?$AAu?$AAr?$AA_?$AAh?$AAa?$AAn?$AAd?$AAl?$AAe?$AA?$AA@ 000000018001cc40     libappcrt:winapi_nonmsdk.obj
 0002:00001c78       ??_C@_1DA@OJEMFADD@?$AAf?$AAr?$AAe?$AAe?$AA_?$AAl?$AAi?$AAb?$AAr?$AAa?$AAr?$AAy?$AA?5?$AA?$CB?$AA?$DN?$AA?5?$AAn?$AAu?$AAl?$AAl?$AAp?$AAt?$AAr?$AA?$AA@ 000000018001cc78     libappcrt:winapi_nonmsdk.obj
 0002:00001ca8       ??_C@_1BM@FHNECPOM@?$AAp?$AAf?$AA?5?$AA?$CB?$AA?$DN?$AA?5?$AAn?$AAu?$AAl?$AAl?$AAp?$AAt?$AAr?$AA?$AA@ 000000018001cca8     libappcrt:winapi_nonmsdk.obj
 0002:00001cc8       ??_C@_0M@LPAKIOHO@ExitProcess?$AA@ 000000018001ccc8     libappcrt:winapi_nonmsdk.obj
 0002:00001cd8       ??_C@_1DE@DLBACOGL@?$AAg?$AAe?$AAt?$AA_?$AAc?$AAa?$AAc?$AAh?$AAe?$AAd?$AA_?$AAE?$AAx?$AAi?$AAt?$AAP?$AAr?$AAo?$AAc?$AAe?$AAs?$AAs?$AA_?$AAp?$AAf?$AA?$AA@ 000000018001ccd8     libappcrt:winapi_nonmsdk.obj
 0002:00001d10       ??_C@_1DE@EAOIEEJM@?$AAg?$AAe?$AAt?$AA_?$AAc?$AAa?$AAc?$AAh?$AAe?$AAd?$AA_?$AAF?$AAr?$AAe?$AAe?$AAL?$AAi?$AAb?$AAr?$AAa?$AAr?$AAy?$AA_?$AAp?$AAf?$AA?$AA@ 000000018001cd10     libappcrt:winapi_nonmsdk.obj
 0002:00001d48       ??_C@_0P@KCDONI@GetConsoleMode?$AA@ 000000018001cd48     libappcrt:winapi_nonmsdk.obj
 0002:00001d58       ??_C@_1DK@KMGEIFKK@?$AAg?$AAe?$AAt?$AA_?$AAc?$AAa?$AAc?$AAh?$AAe?$AAd?$AA_?$AAG?$AAe?$AAt?$AAC?$AAo?$AAn?$AAs?$AAo?$AAl?$AAe?$AAM?$AAo?$AAd?$AAe?$AA_?$AAp?$AAf?$AA?$AA@ 000000018001cd58     libappcrt:winapi_nonmsdk.obj
 0002:00001d98       ??_C@_0M@PPCMHALN@GetFileType?$AA@ 000000018001cd98     libappcrt:winapi_nonmsdk.obj
 0002:00001da8       ??_C@_1DE@EBAHFPOI@?$AAg?$AAe?$AAt?$AA_?$AAc?$AAa?$AAc?$AAh?$AAe?$AAd?$AA_?$AAG?$AAe?$AAt?$AAF?$AAi?$AAl?$AAe?$AAT?$AAy?$AAp?$AAe?$AA_?$AAp?$AAf?$AA?$AA@ 000000018001cda8     libappcrt:winapi_nonmsdk.obj
 0002:00001de0       ??_C@_1EC@OMOGEOJO@?$AAg?$AAe?$AAt?$AA_?$AAc?$AAa?$AAc?$AAh?$AAe?$AAd?$AA_?$AAG?$AAe?$AAt?$AAM?$AAo?$AAd?$AAu?$AAl?$AAe?$AAH?$AAa?$AAn?$AAd?$AAl?$AAe?$AAE?$AAx?$AAW?$AA_?$AAp?$AAf@ 000000018001cde0     libappcrt:winapi_nonmsdk.obj
 0002:00001e28       ??_C@_1DO@PFCKCGNH@?$AAg?$AAe?$AAt?$AA_?$AAc?$AAa?$AAc?$AAh?$AAe?$AAd?$AA_?$AAG?$AAe?$AAt?$AAM?$AAo?$AAd?$AAu?$AAl?$AAe?$AAH?$AAa?$AAn?$AAd?$AAl?$AAe?$AAW?$AA_?$AAp?$AAf?$AA?$AA@ 000000018001ce28     libappcrt:winapi_nonmsdk.obj
 0002:00001e68       ??_C@_1DM@FJJBNBGK@?$AAg?$AAe?$AAt?$AA_?$AAc?$AAa?$AAc?$AAh?$AAe?$AAd?$AA_?$AAG?$AAe?$AAt?$AAS?$AAt?$AAa?$AAr?$AAt?$AAu?$AAp?$AAI?$AAn?$AAf?$AAo?$AAW?$AA_?$AAp?$AAf?$AA?$AA@ 000000018001ce68     libappcrt:winapi_nonmsdk.obj
 0002:00001ea8       ??_C@_0N@BKPPPGAL@GetStdHandle?$AA@ 000000018001cea8     libappcrt:winapi_nonmsdk.obj
 0002:00001eb8       ??_C@_1DG@KADADGHK@?$AAg?$AAe?$AAt?$AA_?$AAc?$AAa?$AAc?$AAh?$AAe?$AAd?$AA_?$AAG?$AAe?$AAt?$AAS?$AAt?$AAd?$AAH?$AAa?$AAn?$AAd?$AAl?$AAe?$AA_?$AAp?$AAf?$AA?$AA@ 000000018001ceb8     libappcrt:winapi_nonmsdk.obj
 0002:00001ef0       ??_C@_1DK@KINDJFAG@?$AAg?$AAe?$AAt?$AA_?$AAc?$AAa?$AAc?$AAh?$AAe?$AAd?$AA_?$AAL?$AAo?$AAa?$AAd?$AAL?$AAi?$AAb?$AAr?$AAa?$AAr?$AAy?$AAE?$AAx?$AAW?$AA_?$AAp?$AAf?$AA?$AA@ 000000018001cef0     libappcrt:winapi_nonmsdk.obj
 0002:00001f30       ??_C@_0N@GOEBDKEH@SetStdHandle?$AA@ 000000018001cf30     libappcrt:winapi_nonmsdk.obj
 0002:00001f40       ??_C@_1DG@MMODECLJ@?$AAg?$AAe?$AAt?$AA_?$AAc?$AAa?$AAc?$AAh?$AAe?$AAd?$AA_?$AAS?$AAe?$AAt?$AAS?$AAt?$AAd?$AAH?$AAa?$AAn?$AAd?$AAl?$AAe?$AA_?$AAp?$AAf?$AA?$AA@ 000000018001cf40     libappcrt:winapi_nonmsdk.obj
 0002:00001f80       ??_C@_1FI@LEJEGFJB@?$AA_?$AA_?$AAa?$AAc?$AAr?$AAt?$AA_?$AAp?$AAo?$AAs?$AAt?$AA_?$AAi?$AAn?$AAi?$AAt?$AAi?$AAa?$AAl?$AAi?$AAz?$AAe?$AA_?$AAn?$AAo?$AAn?$AAm?$AAs?$AAd?$AAk?$AA_?$AAd@ 000000018001cf80     libappcrt:winapi_nonmsdk.obj
 0002:00001fe0       ??_C@_1EA@NAGDEAIH@?$AA_?$AAL?$AAi?$AAb?$AAr?$AAa?$AAr?$AAy?$AAL?$AAo?$AAa?$AAd?$AAe?$AAr?$AAH?$AAa?$AAn?$AAd?$AAl?$AAe?$AA?5?$AA?$CB?$AA?$DN?$AA?5?$AAn?$AAu?$AAl?$AAl?$AAp?$AAt?$AAr?$AA?$AA@ 000000018001cfe0     libappcrt:winapi_nonmsdk.obj
 0002:00002020       ??_C@_0P@HECBOJPO@LoadLibraryExW?$AA@ 000000018001d020     libappcrt:winapi_nonmsdk.obj
 0002:00002030       ??_C@_1BK@MGMFAEKH@?$AAk?$AAe?$AAr?$AAn?$AAe?$AAl?$AA3?$AA2?$AA?4?$AAd?$AAl?$AAl?$AA?$AA@ 000000018001d030     libappcrt:winapi_nonmsdk.obj
 0002:00002050       ??_C@_1FM@EEGGEHPM@?$AAl?$AAi?$AAb?$AAr?$AAa?$AAr?$AAy?$AA_?$AAl?$AAo?$AAa?$AAd?$AAe?$AAr?$AA_?$AAh?$AAa?$AAn?$AAd?$AAl?$AAe?$AA?5?$AA?$DN?$AA?$DN?$AA?5?$AA_?$AAL?$AAi?$AAb?$AAr?$AAa?$AAr@ 000000018001d050     libappcrt:winapi_nonmsdk.obj
 0002:000020b0       ??_C@_0BD@GIGEJCNH@GetModuleHandleExW?$AA@ 000000018001d0b0     libappcrt:winapi_nonmsdk.obj
 0002:000020c8       ??_C@_1DK@ENADPKHL@?$AAg?$AAe?$AAt?$AA_?$AAm?$AAo?$AAd?$AAu?$AAl?$AAe?$AA_?$AAh?$AAa?$AAn?$AAd?$AAl?$AAe?$AA?5?$AA?$CB?$AA?$DN?$AA?5?$AAn?$AAu?$AAl?$AAl?$AAp?$AAt?$AAr?$AA?$AA@ 000000018001d0c8     libappcrt:winapi_nonmsdk.obj
 0002:00002108       ??_C@_0M@FACAOGOA@FreeLibrary?$AA@ 000000018001d108     libappcrt:winapi_nonmsdk.obj
 0002:00002118       ??_C@_0BB@GBNBFCPM@GetModuleHandleW?$AA@ 000000018001d118     libappcrt:winapi_nonmsdk.obj
 0002:00002130       ??_C@_0BA@LBKNCAKF@GetStartupInfoW?$AA@ 000000018001d130     libappcrt:winapi_nonmsdk.obj
 0002:00002140       ??_C@_1II@BJLEMCDA@?$AAf?$AA?3?$AA?2?$AAd?$AAd?$AA?2?$AAv?$AAc?$AAt?$AAo?$AAo?$AAl?$AAs?$AA?2?$AAc?$AAr?$AAt?$AA?2?$AAc?$AAo?$AAr?$AAe?$AA_?$AAc?$AAr?$AAt?$AA?2?$AAs?$AAr?$AAc?$AA?2?$AAa@ 000000018001d140     libappcrt:winapi_downlevel.obj
 0002:000021c8       ??_C@_1DG@BKNFBLLI@?$AAg?$AAe?$AAt?$AA_?$AAk?$AAe?$AAr?$AAn?$AAe?$AAl?$AA3?$AA2?$AA_?$AAm?$AAo?$AAd?$AAu?$AAl?$AAe?$AA_?$AAh?$AAa?$AAn?$AAd?$AAl?$AAe?$AA?$AA@ 000000018001d1c8     libappcrt:winapi_downlevel.obj
 0002:00002200       ??_C@_0BA@IHGNDAEB@CompareStringEx?$AA@ 000000018001d200     libappcrt:winapi_downlevel.obj
 0002:00002210       ??_C@_0BE@LJANKFHF@EnumSystemLocalesEx?$AA@ 000000018001d210     libappcrt:winapi_downlevel.obj
 0002:00002228       ??_C@_0BN@NEEHBBPO@GetFileInformationByHandleEx?$AA@ 000000018001d228     libappcrt:winapi_downlevel.obj
 0002:00002248       ??_C@_0BA@ONOKGCMP@GetLocaleInfoEx?$AA@ 000000018001d248     libappcrt:winapi_downlevel.obj
 0002:00002258       ??_C@_0BP@FPNJPEJC@GetSystemTimePreciseAsFileTime?$AA@ 000000018001d258     libappcrt:winapi_downlevel.obj
 0002:00002278       ??_C@_0BC@CELBKLLA@IsValidLocaleName?$AA@ 000000018001d278     libappcrt:winapi_downlevel.obj
 0002:00002290       ??_C@_0BA@EPCJIIPD@GetDateFormatEx?$AA@ 000000018001d290     libappcrt:winapi_downlevel.obj
 0002:000022a0       ??_C@_0BA@CIJJKCJJ@GetTimeFormatEx?$AA@ 000000018001d2a0     libappcrt:winapi_downlevel.obj
 0002:000022b0       ??_C@_0BJ@PBCCBIPI@GetUserDefaultLocaleName?$AA@ 000000018001d2b0     libappcrt:winapi_downlevel.obj
 0002:000022d0       ??_C@_0BB@CDHDDLLP@LCIDToLocaleName?$AA@ 000000018001d2d0     libappcrt:winapi_downlevel.obj
 0002:000022e8       ??_C@_0O@KKBNKAPF@LCMapStringEx?$AA@ 000000018001d2e8     libappcrt:winapi_downlevel.obj
 0002:000022f8       ??_C@_0BB@HBDEELFH@LocaleNameToLCID?$AA@ 000000018001d2f8     libappcrt:winapi_downlevel.obj
 0002:00002310       ??_C@_0BI@BKLFFAPO@SetThreadStackGuarantee?$AA@ 000000018001d310     libappcrt:winapi_downlevel.obj
 0002:000023b0       ??_C@_03OEIAHPBN@INF?$AA@  000000018001d3b0     libappcrt:cvt.obj
 0002:000023b4       ??_C@_03OJHLLCGB@inf?$AA@  000000018001d3b4     libappcrt:cvt.obj
 0002:000023b8       ??_C@_03LKNCIKJB@NAN?$AA@  000000018001d3b8     libappcrt:cvt.obj
 0002:000023bc       ??_C@_03LHCJEHON@nan?$AA@  000000018001d3bc     libappcrt:cvt.obj
 0002:000023c0       ??_C@_09OFJJIMPC@NAN?$CISNAN?$CJ?$AA@ 000000018001d3c0     libappcrt:cvt.obj
 0002:000023d0       ??_C@_09IPFBKMDL@nan?$CIsnan?$CJ?$AA@ 000000018001d3d0     libappcrt:cvt.obj
 0002:000023e0       ??_C@_08IKHNHAJ@NAN?$CIIND?$CJ?$AA@ 000000018001d3e0     libappcrt:cvt.obj
 0002:000023f0       ??_C@_08OFCDMILK@nan?$CIind?$CJ?$AA@ 000000018001d3f0     libappcrt:cvt.obj
 0002:000023fc       ??_C@_05KLBDPFGC@e?$CL000?$AA@ 000000018001d3fc     libappcrt:cvt.obj
 0002:00002404       ??_C@_03KOEHGMDN@Sun?$AA@  000000018001d404     libappcrt:nlsdata.obj
 0002:00002408       ??_C@_03PDAGKDH@Mon?$AA@   000000018001d408     libappcrt:nlsdata.obj
 0002:0000240c       ??_C@_03NAGEINEP@Tue?$AA@  000000018001d40c     libappcrt:nlsdata.obj
 0002:00002410       ??_C@_03MHOMLAJA@Wed?$AA@  000000018001d410     libappcrt:nlsdata.obj
 0002:00002414       ??_C@_03IOFIKPDN@Thu?$AA@  000000018001d414     libappcrt:nlsdata.obj
 0002:00002418       ??_C@_03IDIOELNC@Fri?$AA@  000000018001d418     libappcrt:nlsdata.obj
 0002:0000241c       ??_C@_03FEFJNEK@Sat?$AA@   000000018001d41c     libappcrt:nlsdata.obj
 0002:00002420       ??_C@_06OOPIFAJ@Sunday?$AA@ 000000018001d420     libappcrt:nlsdata.obj
 0002:00002428       ??_C@_06JLEDEDGH@Monday?$AA@ 000000018001d428     libappcrt:nlsdata.obj
 0002:00002430       ??_C@_07BAAGCFCM@Tuesday?$AA@ 000000018001d430     libappcrt:nlsdata.obj
 0002:00002438       ??_C@_09DLIGFAKA@Wednesday?$AA@ 000000018001d438     libappcrt:nlsdata.obj
 0002:00002448       ??_C@_08HACCIKIA@Thursday?$AA@ 000000018001d448     libappcrt:nlsdata.obj
 0002:00002454       ??_C@_06JECMNKMI@Friday?$AA@ 000000018001d454     libappcrt:nlsdata.obj
 0002:00002460       ??_C@_08INBOOONO@Saturday?$AA@ 000000018001d460     libappcrt:nlsdata.obj
 0002:0000246c       ??_C@_03JIHJHPIE@Jan?$AA@  000000018001d46c     libappcrt:nlsdata.obj
 0002:00002470       ??_C@_03HJBDCHOM@Feb?$AA@  000000018001d470     libappcrt:nlsdata.obj
 0002:00002474       ??_C@_03ODNJBKGA@Mar?$AA@  000000018001d474     libappcrt:nlsdata.obj
 0002:00002478       ??_C@_03LEOLGMJP@Apr?$AA@  000000018001d478     libappcrt:nlsdata.obj
 0002:0000247c       ??_C@_03CNMDKL@May?$AA@    000000018001d47c     libappcrt:nlsdata.obj
 0002:00002480       ??_C@_03IDFGHECI@Jun?$AA@  000000018001d480     libappcrt:nlsdata.obj
 0002:00002484       ??_C@_03LBGABGKK@Jul?$AA@  000000018001d484     libappcrt:nlsdata.obj
 0002:00002488       ??_C@_03IFJFEIGA@Aug?$AA@  000000018001d488     libappcrt:nlsdata.obj
 0002:0000248c       ??_C@_03GGCAPAJC@Sep?$AA@  000000018001d48c     libappcrt:nlsdata.obj
 0002:00002490       ??_C@_03BMAOKBAD@Oct?$AA@  000000018001d490     libappcrt:nlsdata.obj
 0002:00002494       ??_C@_03JPJOFNIA@Nov?$AA@  000000018001d494     libappcrt:nlsdata.obj
 0002:00002498       ??_C@_03MKABNOCG@Dec?$AA@  000000018001d498     libappcrt:nlsdata.obj
 0002:000024a0       ??_C@_07CGJPFGJA@January?$AA@ 000000018001d4a0     libappcrt:nlsdata.obj
 0002:000024a8       ??_C@_08GNJGEPFN@February?$AA@ 000000018001d4a8     libappcrt:nlsdata.obj
 0002:000024b4       ??_C@_05HPCKOFNC@March?$AA@ 000000018001d4b4     libappcrt:nlsdata.obj
 0002:000024bc       ??_C@_05DMJDNLEJ@April?$AA@ 000000018001d4bc     libappcrt:nlsdata.obj
 0002:000024c4       ??_C@_04CNLMGBGM@June?$AA@ 000000018001d4c4     libappcrt:nlsdata.obj
 0002:000024cc       ??_C@_04MIEPOIFP@July?$AA@ 000000018001d4cc     libappcrt:nlsdata.obj
 0002:000024d4       ??_C@_06LBBHFDDG@August?$AA@ 000000018001d4d4     libappcrt:nlsdata.obj
 0002:000024e0       ??_C@_09BHHEALKD@September?$AA@ 000000018001d4e0     libappcrt:nlsdata.obj
 0002:000024f0       ??_C@_07JJNFCEND@October?$AA@ 000000018001d4f0     libappcrt:nlsdata.obj
 0002:000024f8       ??_C@_08HCHEGEOA@November?$AA@ 000000018001d4f8     libappcrt:nlsdata.obj
 0002:00002508       ??_C@_08EDHMEBNP@December?$AA@ 000000018001d508     libappcrt:nlsdata.obj
 0002:00002514       ??_C@_02DEDBPAFC@AM?$AA@   000000018001d514     libappcrt:nlsdata.obj
 0002:00002518       ??_C@_02CJNFDJBF@PM?$AA@   000000018001d518     libappcrt:nlsdata.obj
 0002:00002520       ??_C@_08BPBNCDIB@MM?1dd?1yy?$AA@ 000000018001d520     libappcrt:nlsdata.obj
 0002:00002530       ??_C@_0BE@CKGJFCPC@dddd?0?5MMMM?5dd?0?5yyyy?$AA@ 000000018001d530     libappcrt:nlsdata.obj
 0002:00002548       ??_C@_08JCCMCCIL@HH?3mm?3ss?$AA@ 000000018001d548     libappcrt:nlsdata.obj
 0002:00002558       ??_C@_17MBGCMIPB@?$AAS?$AAu?$AAn?$AA?$AA@ 000000018001d558     libappcrt:nlsdata.obj
 0002:00002560       ??_C@_17KBOMKBF@?$AAM?$AAo?$AAn?$AA?$AA@ 000000018001d560     libappcrt:nlsdata.obj
 0002:00002568       ??_C@_17BMKGEGOJ@?$AAT?$AAu?$AAe?$AA?$AA@ 000000018001d568     libappcrt:nlsdata.obj
 0002:00002570       ??_C@_17CJEDCEPE@?$AAW?$AAe?$AAd?$AA?$AA@ 000000018001d570     libappcrt:nlsdata.obj
 0002:00002578       ??_C@_17PDPHAADD@?$AAT?$AAh?$AAu?$AA?$AA@ 000000018001d578     libappcrt:nlsdata.obj
 0002:00002580       ??_C@_17HFOLPPLP@?$AAF?$AAr?$AAi?$AA?$AA@ 000000018001d580     libappcrt:nlsdata.obj
 0002:00002588       ??_C@_17GGIBDPIH@?$AAS?$AAa?$AAt?$AA?$AA@ 000000018001d588     libappcrt:nlsdata.obj
 0002:00002590       ??_C@_1O@IHNHDHPB@?$AAS?$AAu?$AAn?$AAd?$AAa?$AAy?$AA?$AA@ 000000018001d590     libappcrt:nlsdata.obj
 0002:000025a0       ??_C@_1O@MMNBFLIA@?$AAM?$AAo?$AAn?$AAd?$AAa?$AAy?$AA?$AA@ 000000018001d5a0     libappcrt:nlsdata.obj
 0002:000025b0       ??_C@_1BA@ENFBFFEK@?$AAT?$AAu?$AAe?$AAs?$AAd?$AAa?$AAy?$AA?$AA@ 000000018001d5b0     libappcrt:nlsdata.obj
 0002:000025c0       ??_C@_1BE@EBOGMDOH@?$AAW?$AAe?$AAd?$AAn?$AAe?$AAs?$AAd?$AAa?$AAy?$AA?$AA@ 000000018001d5c0     libappcrt:nlsdata.obj
 0002:000025d8       ??_C@_1BC@HHMNLIHE@?$AAT?$AAh?$AAu?$AAr?$AAs?$AAd?$AAa?$AAy?$AA?$AA@ 000000018001d5d8     libappcrt:nlsdata.obj
 0002:000025f0       ??_C@_1O@PDICJHAG@?$AAF?$AAr?$AAi?$AAd?$AAa?$AAy?$AA?$AA@ 000000018001d5f0     libappcrt:nlsdata.obj
 0002:00002600       ??_C@_1BC@ENMNNPAJ@?$AAS?$AAa?$AAt?$AAu?$AAr?$AAd?$AAa?$AAy?$AA?$AA@ 000000018001d600     libappcrt:nlsdata.obj
 0002:00002618       ??_C@_17DKNBKCHM@?$AAJ?$AAa?$AAn?$AA?$AA@ 000000018001d618     libappcrt:nlsdata.obj
 0002:00002620       ??_C@_17LMDJEKJN@?$AAF?$AAe?$AAb?$AA?$AA@ 000000018001d620     libappcrt:nlsdata.obj
 0002:00002628       ??_C@_17CKNLEDEC@?$AAM?$AAa?$AAr?$AA?$AA@ 000000018001d628     libappcrt:nlsdata.obj
 0002:00002630       ??_C@_17LFPOIHDD@?$AAA?$AAp?$AAr?$AA?$AA@ 000000018001d630     libappcrt:nlsdata.obj
 0002:00002638       ??_C@_17PNNKMEED@?$AAM?$AAa?$AAy?$AA?$AA@ 000000018001d638     libappcrt:nlsdata.obj
 0002:00002640       ??_C@_17KCJGOCPB@?$AAJ?$AAu?$AAn?$AA?$AA@ 000000018001d640     libappcrt:nlsdata.obj
 0002:00002648       ??_C@_17IJPCKHK@?$AAJ?$AAu?$AAl?$AA?$AA@ 000000018001d648     libappcrt:nlsdata.obj
 0002:00002650       ??_C@_17ICPELBCN@?$AAA?$AAu?$AAg?$AA?$AA@ 000000018001d650     libappcrt:nlsdata.obj
 0002:00002658       ??_C@_17HCHCOKMG@?$AAS?$AAe?$AAp?$AA?$AA@ 000000018001d658     libappcrt:nlsdata.obj
 0002:00002660       ??_C@_17FNLKOI@?$AAO?$AAc?$AAt?$AA?$AA@ 000000018001d660     libappcrt:nlsdata.obj
 0002:00002668       ??_C@_17BBDMLCIG@?$AAN?$AAo?$AAv?$AA?$AA@ 000000018001d668     libappcrt:nlsdata.obj
 0002:00002670       ??_C@_17EGKACKIF@?$AAD?$AAe?$AAc?$AA?$AA@ 000000018001d670     libappcrt:nlsdata.obj
 0002:00002678       ??_C@_1BA@EFMEIEBA@?$AAJ?$AAa?$AAn?$AAu?$AAa?$AAr?$AAy?$AA?$AA@ 000000018001d678     libappcrt:nlsdata.obj
 0002:00002688       ??_C@_1BC@JGDDFFAM@?$AAF?$AAe?$AAb?$AAr?$AAu?$AAa?$AAr?$AAy?$AA?$AA@ 000000018001d688     libappcrt:nlsdata.obj
 0002:000026a0       ??_C@_1M@IKEENEDF@?$AAM?$AAa?$AAr?$AAc?$AAh?$AA?$AA@ 000000018001d6a0     libappcrt:nlsdata.obj
 0002:000026b0       ??_C@_1M@GJNLMHFD@?$AAA?$AAp?$AAr?$AAi?$AAl?$AA?$AA@ 000000018001d6b0     libappcrt:nlsdata.obj
 0002:000026c0       ??_C@_19EPFLPGAP@?$AAJ?$AAu?$AAn?$AAe?$AA?$AA@ 000000018001d6c0     libappcrt:nlsdata.obj
 0002:000026d0       ??_C@_19BIFMLPCD@?$AAJ?$AAu?$AAl?$AAy?$AA?$AA@ 000000018001d6d0     libappcrt:nlsdata.obj
 0002:000026e0       ??_C@_1O@PAHLKOAC@?$AAA?$AAu?$AAg?$AAu?$AAs?$AAt?$AA?$AA@ 000000018001d6e0     libappcrt:nlsdata.obj
 0002:000026f0       ??_C@_1BE@DKAAMBJL@?$AAS?$AAe?$AAp?$AAt?$AAe?$AAm?$AAb?$AAe?$AAr?$AA?$AA@ 000000018001d6f0     libappcrt:nlsdata.obj
 0002:00002708       ??_C@_1BA@EPANDLNG@?$AAO?$AAc?$AAt?$AAo?$AAb?$AAe?$AAr?$AA?$AA@ 000000018001d708     libappcrt:nlsdata.obj
 0002:00002718       ??_C@_1BC@BGLIFPF@?$AAN?$AAo?$AAv?$AAe?$AAm?$AAb?$AAe?$AAr?$AA?$AA@ 000000018001d718     libappcrt:nlsdata.obj
 0002:00002730       ??_C@_1BC@FEMKIFH@?$AAD?$AAe?$AAc?$AAe?$AAm?$AAb?$AAe?$AAr?$AA?$AA@ 000000018001d730     libappcrt:nlsdata.obj
 0002:00002744       ??_C@_15ODEHAHHF@?$AAA?$AAM?$AA?$AA@ 000000018001d744     libappcrt:nlsdata.obj
 0002:0000274c       ??_C@_15CLMNNGEL@?$AAP?$AAM?$AA?$AA@ 000000018001d74c     libappcrt:nlsdata.obj
 0002:00002758       ??_C@_1BC@IEBCMHCM@?$AAM?$AAM?$AA?1?$AAd?$AAd?$AA?1?$AAy?$AAy?$AA?$AA@ 000000018001d758     libappcrt:nlsdata.obj
 0002:00002770       ??_C@_1CI@KNAKOEBC@?$AAd?$AAd?$AAd?$AAd?$AA?0?$AA?5?$AAM?$AAM?$AAM?$AAM?$AA?5?$AAd?$AAd?$AA?0?$AA?5?$AAy?$AAy?$AAy?$AAy?$AA?$AA@ 000000018001d770     libappcrt:nlsdata.obj
 0002:00002798       ??_C@_1BC@GDGBMEMK@?$AAH?$AAH?$AA?3?$AAm?$AAm?$AA?3?$AAs?$AAs?$AA?$AA@ 000000018001d798     libappcrt:nlsdata.obj
 0002:000027b0       ??_C@_1M@BMHNFIME@?$AAe?$AAn?$AA?9?$AAU?$AAS?$AA?$AA@ 000000018001d7b0     libappcrt:nlsdata.obj
 0002:000027e0       ??_C@_1M@HPNHIDJI@?$AAj?$AAa?$AA?9?$AAJ?$AAP?$AA?$AA@ 000000018001d7e0     libappcrt:mbctype.obj
 0002:000027f0       ??_C@_1M@BIBDDEMK@?$AAz?$AAh?$AA?9?$AAC?$AAN?$AA?$AA@ 000000018001d7f0     libappcrt:mbctype.obj
 0002:00002800       ??_C@_1M@JLOOOEGK@?$AAk?$AAo?$AA?9?$AAK?$AAR?$AA?$AA@ 000000018001d800     libappcrt:mbctype.obj
 0002:00002810       ??_C@_1M@CLNBBOPM@?$AAz?$AAh?$AA?9?$AAT?$AAW?$AA?$AA@ 000000018001d810     libappcrt:mbctype.obj
 0002:00002820       ??_C@_1M@EDGINPNP@?$AAa?$AAr?$AA?9?$AAQ?$AAA?$AA?$AA@ 000000018001d820     libappcrt:lcidtoname_downlevel.obj
 0002:00002830       ??_C@_1M@MKDBIIJI@?$AAe?$AAs?$AA?9?$AAB?$AAO?$AA?$AA@ 000000018001d830     libappcrt:lcidtoname_downlevel.obj
 0002:00002840       ??_C@_1M@CPKKEBLD@?$AAe?$AAs?$AA?9?$AAS?$AAV?$AA?$AA@ 000000018001d840     libappcrt:lcidtoname_downlevel.obj
 0002:00002850       ??_C@_1M@NDBGMMJL@?$AAe?$AAs?$AA?9?$AAH?$AAN?$AA?$AA@ 000000018001d850     libappcrt:lcidtoname_downlevel.obj
 0002:00002860       ??_C@_1M@JIJIBHDP@?$AAe?$AAs?$AA?9?$AAN?$AAI?$AA?$AA@ 000000018001d860     libappcrt:lcidtoname_downlevel.obj
 0002:00002870       ??_C@_1M@CGFMKEEK@?$AAe?$AAs?$AA?9?$AAP?$AAR?$AA?$AA@ 000000018001d870     libappcrt:lcidtoname_downlevel.obj
 0002:00002880       ??_C@_1O@ICJHKIIK@?$AAz?$AAh?$AA?9?$AAC?$AAH?$AAT?$AA?$AA@ 000000018001d880     libappcrt:lcidtoname_downlevel.obj
 0002:00002890       ??_C@_15CLNEJCE@?$AAs?$AAr?$AA?$AA@ 000000018001d890     libappcrt:lcidtoname_downlevel.obj
 0002:00004520       ??_C@_1M@KAHEKEIG@?$AAa?$AAf?$AA?9?$AAz?$AAa?$AA?$AA@ 000000018001f520     libappcrt:lcidtoname_downlevel.obj
 0002:00004530       ??_C@_1M@GIECOABL@?$AAa?$AAr?$AA?9?$AAa?$AAe?$AA?$AA@ 000000018001f530     libappcrt:lcidtoname_downlevel.obj
 0002:00004540       ??_C@_1M@BMLMEKGI@?$AAa?$AAr?$AA?9?$AAb?$AAh?$AA?$AA@ 000000018001f540     libappcrt:lcidtoname_downlevel.obj
 0002:00004550       ??_C@_1M@DAPFDGGB@?$AAa?$AAr?$AA?9?$AAd?$AAz?$AA?$AA@ 000000018001f550     libappcrt:lcidtoname_downlevel.obj
 0002:00004560       ??_C@_1M@FJNKGKIG@?$AAa?$AAr?$AA?9?$AAe?$AAg?$AA?$AA@ 000000018001f560     libappcrt:lcidtoname_downlevel.obj
 0002:00004570       ??_C@_1M@FLGKKCLO@?$AAa?$AAr?$AA?9?$AAi?$AAq?$AA?$AA@ 000000018001f570     libappcrt:lcidtoname_downlevel.obj
 0002:00004580       ??_C@_1M@GNDIPALM@?$AAa?$AAr?$AA?9?$AAj?$AAo?$AA?$AA@ 000000018001f580     libappcrt:lcidtoname_downlevel.obj
 0002:00004590       ??_C@_1M@DDMJFMGJ@?$AAa?$AAr?$AA?9?$AAk?$AAw?$AA?$AA@ 000000018001f590     libappcrt:lcidtoname_downlevel.obj
 0002:000045a0       ??_C@_1M@EJALMLHM@?$AAa?$AAr?$AA?9?$AAl?$AAb?$AA?$AA@ 000000018001f5a0     libappcrt:lcidtoname_downlevel.obj
 0002:000045b0       ??_C@_1M@MOBDBLOC@?$AAa?$AAr?$AA?9?$AAl?$AAy?$AA?$AA@ 000000018001f5b0     libappcrt:lcidtoname_downlevel.obj
 0002:000045c0       ??_C@_1M@JAOCLHDH@?$AAa?$AAr?$AA?9?$AAm?$AAa?$AA?$AA@ 000000018001f5c0     libappcrt:lcidtoname_downlevel.obj
 0002:000045d0       ??_C@_1M@JHPMKJIE@?$AAa?$AAr?$AA?9?$AAo?$AAm?$AA?$AA@ 000000018001f5d0     libappcrt:lcidtoname_downlevel.obj
 0002:000045e0       ??_C@_1M@OEPGHFNH@?$AAa?$AAr?$AA?9?$AAq?$AAa?$AA?$AA@ 000000018001f5e0     libappcrt:lcidtoname_downlevel.obj
 0002:000045f0       ??_C@_1M@KJDONENM@?$AAa?$AAr?$AA?9?$AAs?$AAa?$AA?$AA@ 000000018001f5f0     libappcrt:lcidtoname_downlevel.obj
 0002:00004600       ??_C@_1M@DMJDKLKM@?$AAa?$AAr?$AA?9?$AAs?$AAy?$AA?$AA@ 000000018001f600     libappcrt:lcidtoname_downlevel.obj
 0002:00004610       ??_C@_1M@OMFIPEDC@?$AAa?$AAr?$AA?9?$AAt?$AAn?$AA?$AA@ 000000018001f610     libappcrt:lcidtoname_downlevel.obj
 0002:00004620       ??_C@_1M@IHMHGAON@?$AAa?$AAr?$AA?9?$AAy?$AAe?$AA?$AA@ 000000018001f620     libappcrt:lcidtoname_downlevel.obj
 0002:00004630       ??_C@_1BG@KDCPGJGB@?$AAa?$AAz?$AA?9?$AAa?$AAz?$AA?9?$AAc?$AAy?$AAr?$AAl?$AA?$AA@ 000000018001f630     libappcrt:lcidtoname_downlevel.obj
 0002:00004648       ??_C@_1BG@IBCKDDOE@?$AAa?$AAz?$AA?9?$AAa?$AAz?$AA?9?$AAl?$AAa?$AAt?$AAn?$AA?$AA@ 000000018001f648     libappcrt:lcidtoname_downlevel.obj
 0002:00004660       ??_C@_1M@EGPFDCPD@?$AAb?$AAe?$AA?9?$AAb?$AAy?$AA?$AA@ 000000018001f660     libappcrt:lcidtoname_downlevel.obj
 0002:00004670       ??_C@_1M@PCMGMCGC@?$AAb?$AAg?$AA?9?$AAb?$AAg?$AA?$AA@ 000000018001f670     libappcrt:lcidtoname_downlevel.obj
 0002:00004680       ??_C@_1M@BJBMFGOB@?$AAb?$AAn?$AA?9?$AAi?$AAn?$AA?$AA@ 000000018001f680     libappcrt:lcidtoname_downlevel.obj
 0002:00004690       ??_C@_1BG@EAKMMACD@?$AAb?$AAs?$AA?9?$AAb?$AAa?$AA?9?$AAl?$AAa?$AAt?$AAn?$AA?$AA@ 000000018001f690     libappcrt:lcidtoname_downlevel.obj
 0002:000046a8       ??_C@_1M@KGADAODK@?$AAc?$AAa?$AA?9?$AAe?$AAs?$AA?$AA@ 000000018001f6a8     libappcrt:lcidtoname_downlevel.obj
 0002:000046b8       ??_C@_1M@COAJPDHI@?$AAc?$AAs?$AA?9?$AAc?$AAz?$AA?$AA@ 000000018001f6b8     libappcrt:lcidtoname_downlevel.obj
 0002:000046c8       ??_C@_1M@DHBHFONH@?$AAc?$AAy?$AA?9?$AAg?$AAb?$AA?$AA@ 000000018001f6c8     libappcrt:lcidtoname_downlevel.obj
 0002:000046d8       ??_C@_1M@IMGKELGA@?$AAd?$AAa?$AA?9?$AAd?$AAk?$AA?$AA@ 000000018001f6d8     libappcrt:lcidtoname_downlevel.obj
 0002:000046e8       ??_C@_1M@NNDGDNGA@?$AAd?$AAe?$AA?9?$AAa?$AAt?$AA?$AA@ 000000018001f6e8     libappcrt:lcidtoname_downlevel.obj
 0002:000046f8       ??_C@_1M@IKDBHEEM@?$AAd?$AAe?$AA?9?$AAc?$AAh?$AA?$AA@ 000000018001f6f8     libappcrt:lcidtoname_downlevel.obj
 0002:00004708       ??_C@_1M@GFFOJMCJ@?$AAd?$AAe?$AA?9?$AAd?$AAe?$AA?$AA@ 000000018001f708     libappcrt:lcidtoname_downlevel.obj
 0002:00004718       ??_C@_1M@MDNLKBPM@?$AAd?$AAe?$AA?9?$AAl?$AAi?$AA?$AA@ 000000018001f718     libappcrt:lcidtoname_downlevel.obj
 0002:00004728       ??_C@_1M@NJBEEJNL@?$AAd?$AAe?$AA?9?$AAl?$AAu?$AA?$AA@ 000000018001f728     libappcrt:lcidtoname_downlevel.obj
 0002:00004738       ??_C@_1O@GNNELBAP@?$AAd?$AAi?$AAv?$AA?9?$AAm?$AAv?$AA?$AA@ 000000018001f738     libappcrt:lcidtoname_downlevel.obj
 0002:00004748       ??_C@_1M@EJLEOGAE@?$AAe?$AAl?$AA?9?$AAg?$AAr?$AA?$AA@ 000000018001f748     libappcrt:lcidtoname_downlevel.obj
 0002:00004758       ??_C@_1M@GMPONJN@?$AAe?$AAn?$AA?9?$AAa?$AAu?$AA?$AA@ 000000018001f758     libappcrt:lcidtoname_downlevel.obj
 0002:00004768       ??_C@_1M@NIDIIPGF@?$AAe?$AAn?$AA?9?$AAb?$AAz?$AA?$AA@ 000000018001f768     libappcrt:lcidtoname_downlevel.obj
 0002:00004778       ??_C@_1M@JEHMIMFO@?$AAe?$AAn?$AA?9?$AAc?$AAa?$AA?$AA@ 000000018001f778     libappcrt:lcidtoname_downlevel.obj
 0002:00004788       ??_C@_1M@IGMJCDLA@?$AAe?$AAn?$AA?9?$AAc?$AAb?$AA?$AA@ 000000018001f788     libappcrt:lcidtoname_downlevel.obj
 0002:00004798       ??_C@_1M@BNFIGBKG@?$AAe?$AAn?$AA?9?$AAg?$AAb?$AA?$AA@ 000000018001f798     libappcrt:lcidtoname_downlevel.obj
 0002:000047a8       ??_C@_1M@LKIFDIGP@?$AAe?$AAn?$AA?9?$AAi?$AAe?$AA?$AA@ 000000018001f7a8     libappcrt:lcidtoname_downlevel.obj
 0002:000047b8       ??_C@_1M@PJKFGCCO@?$AAe?$AAn?$AA?9?$AAj?$AAm?$AA?$AA@ 000000018001f7b8     libappcrt:lcidtoname_downlevel.obj
 0002:000047c8       ??_C@_1M@KPPKEPBO@?$AAe?$AAn?$AA?9?$AAn?$AAz?$AA?$AA@ 000000018001f7c8     libappcrt:lcidtoname_downlevel.obj
 0002:000047d8       ??_C@_1M@GMDGLDOB@?$AAe?$AAn?$AA?9?$AAp?$AAh?$AA?$AA@ 000000018001f7d8     libappcrt:lcidtoname_downlevel.obj
 0002:000047e8       ??_C@_1M@ONGIBJNA@?$AAe?$AAn?$AA?9?$AAt?$AAt?$AA?$AA@ 000000018001f7e8     libappcrt:lcidtoname_downlevel.obj
 0002:000047f8       ??_C@_1M@LLODPCMM@?$AAe?$AAn?$AA?9?$AAu?$AAs?$AA?$AA@ 000000018001f7f8     libappcrt:lcidtoname_downlevel.obj
 0002:00004808       ??_C@_1M@LAKFNPAN@?$AAe?$AAn?$AA?9?$AAz?$AAa?$AA?$AA@ 000000018001f808     libappcrt:lcidtoname_downlevel.obj
 0002:00004818       ??_C@_1M@MFNHNHEO@?$AAe?$AAn?$AA?9?$AAz?$AAw?$AA?$AA@ 000000018001f818     libappcrt:lcidtoname_downlevel.obj
 0002:00004828       ??_C@_1M@EJEINPHM@?$AAe?$AAs?$AA?9?$AAa?$AAr?$AA?$AA@ 000000018001f828     libappcrt:lcidtoname_downlevel.obj
 0002:00004838       ??_C@_1M@GNKPCCJA@?$AAe?$AAs?$AA?9?$AAb?$AAo?$AA?$AA@ 000000018001f838     libappcrt:lcidtoname_downlevel.obj
 0002:00004848       ??_C@_1M@LEEGFONL@?$AAe?$AAs?$AA?9?$AAc?$AAl?$AA?$AA@ 000000018001f848     libappcrt:lcidtoname_downlevel.obj
 0002:00004858       ??_C@_1M@KGPDPBDF@?$AAe?$AAs?$AA?9?$AAc?$AAo?$AA?$AA@ 000000018001f858     libappcrt:lcidtoname_downlevel.obj
 0002:00004868       ??_C@_1M@EIAHOHH@?$AAe?$AAs?$AA?9?$AAc?$AAr?$AA?$AA@ 000000018001f868     libappcrt:lcidtoname_downlevel.obj
 0002:00004878       ??_C@_1M@LLPGMBIN@?$AAe?$AAs?$AA?9?$AAd?$AAo?$AA?$AA@ 000000018001f878     libappcrt:lcidtoname_downlevel.obj
 0002:00004888       ??_C@_1M@DKHMKNJA@?$AAe?$AAs?$AA?9?$AAe?$AAc?$AA?$AA@ 000000018001f888     libappcrt:lcidtoname_downlevel.obj
 0002:00004898       ??_C@_1M@GKGFPKAP@?$AAe?$AAs?$AA?9?$AAe?$AAs?$AA?$AA@ 000000018001f898     libappcrt:lcidtoname_downlevel.obj
 0002:000048a8       ??_C@_1M@LKHKGDLN@?$AAe?$AAs?$AA?9?$AAg?$AAt?$AA?$AA@ 000000018001f8a8     libappcrt:lcidtoname_downlevel.obj
 0002:000048b8       ??_C@_1M@HEIIGGJD@?$AAe?$AAs?$AA?9?$AAh?$AAn?$AA?$AA@ 000000018001f8b8     libappcrt:lcidtoname_downlevel.obj
 0002:000048c8       ??_C@_1M@FBDHPPGD@?$AAe?$AAs?$AA?9?$AAm?$AAx?$AA?$AA@ 000000018001f8c8     libappcrt:lcidtoname_downlevel.obj
 0002:000048d8       ??_C@_1M@DPAGLNDH@?$AAe?$AAs?$AA?9?$AAn?$AAi?$AA?$AA@ 000000018001f8d8     libappcrt:lcidtoname_downlevel.obj
 0002:000048e8       ??_C@_1M@MDGOPGDD@?$AAe?$AAs?$AA?9?$AAp?$AAa?$AA?$AA@ 000000018001f8e8     libappcrt:lcidtoname_downlevel.obj
 0002:000048f8       ??_C@_1M@EMAMGBGE@?$AAe?$AAs?$AA?9?$AAp?$AAe?$AA?$AA@ 000000018001f8f8     libappcrt:lcidtoname_downlevel.obj
 0002:00004908       ??_C@_1M@IBMCAOEC@?$AAe?$AAs?$AA?9?$AAp?$AAr?$AA?$AA@ 000000018001f908     libappcrt:lcidtoname_downlevel.obj
 0002:00004918       ??_C@_1M@FGMDIJED@?$AAe?$AAs?$AA?9?$AAp?$AAy?$AA?$AA@ 000000018001f918     libappcrt:lcidtoname_downlevel.obj
 0002:00004928       ??_C@_1M@IIDEOLLL@?$AAe?$AAs?$AA?9?$AAs?$AAv?$AA?$AA@ 000000018001f928     libappcrt:lcidtoname_downlevel.obj
 0002:00004938       ??_C@_1M@GAOBIPA@?$AAe?$AAs?$AA?9?$AAu?$AAy?$AA?$AA@ 000000018001f938     libappcrt:lcidtoname_downlevel.obj
 0002:00004948       ??_C@_1M@JKFFICHJ@?$AAe?$AAs?$AA?9?$AAv?$AAe?$AA?$AA@ 000000018001f948     libappcrt:lcidtoname_downlevel.obj
 0002:00004958       ??_C@_1M@PNMLOJDF@?$AAe?$AAt?$AA?9?$AAe?$AAe?$AA?$AA@ 000000018001f958     libappcrt:lcidtoname_downlevel.obj
 0002:00004968       ??_C@_1M@GHHLIKEI@?$AAe?$AAu?$AA?9?$AAe?$AAs?$AA?$AA@ 000000018001f968     libappcrt:lcidtoname_downlevel.obj
 0002:00004978       ??_C@_1M@PBNONODE@?$AAf?$AAa?$AA?9?$AAi?$AAr?$AA?$AA@ 000000018001f978     libappcrt:lcidtoname_downlevel.obj
 0002:00004988       ??_C@_1M@JEEHPMIL@?$AAf?$AAi?$AA?9?$AAf?$AAi?$AA?$AA@ 000000018001f988     libappcrt:lcidtoname_downlevel.obj
 0002:00004998       ??_C@_1M@LMDCNDBA@?$AAf?$AAo?$AA?9?$AAf?$AAo?$AA?$AA@ 000000018001f998     libappcrt:lcidtoname_downlevel.obj
 0002:000049a8       ??_C@_1M@JKEOHLDK@?$AAf?$AAr?$AA?9?$AAb?$AAe?$AA?$AA@ 000000018001f9a8     libappcrt:lcidtoname_downlevel.obj
 0002:000049b8       ??_C@_1M@NOHADPMI@?$AAf?$AAr?$AA?9?$AAc?$AAa?$AA?$AA@ 000000018001f9b8     libappcrt:lcidtoname_downlevel.obj
 0002:000049c8       ??_C@_1M@KDHIHAEC@?$AAf?$AAr?$AA?9?$AAc?$AAh?$AA?$AA@ 000000018001f9c8     libappcrt:lcidtoname_downlevel.obj
 0002:000049d8       ??_C@_1M@MMBBFGAK@?$AAf?$AAr?$AA?9?$AAf?$AAr?$AA?$AA@ 000000018001f9d8     libappcrt:lcidtoname_downlevel.obj
 0002:000049e8       ??_C@_1M@PAFNENNF@?$AAf?$AAr?$AA?9?$AAl?$AAu?$AA?$AA@ 000000018001f9e8     libappcrt:lcidtoname_downlevel.obj
 0002:000049f8       ??_C@_1M@EOHDJGDD@?$AAf?$AAr?$AA?9?$AAm?$AAc?$AA?$AA@ 000000018001f9f8     libappcrt:lcidtoname_downlevel.obj
 0002:00004a08       ??_C@_1M@FAPLLOPF@?$AAg?$AAl?$AA?9?$AAe?$AAs?$AA?$AA@ 000000018001fa08     libappcrt:lcidtoname_downlevel.obj
 0002:00004a18       ??_C@_1M@FOPBFLOO@?$AAg?$AAu?$AA?9?$AAi?$AAn?$AA?$AA@ 000000018001fa18     libappcrt:lcidtoname_downlevel.obj
 0002:00004a28       ??_C@_1M@KBMCINPM@?$AAh?$AAe?$AA?9?$AAi?$AAl?$AA?$AA@ 000000018001fa28     libappcrt:lcidtoname_downlevel.obj
 0002:00004a38       ??_C@_1M@BBPHKFPJ@?$AAh?$AAi?$AA?9?$AAi?$AAn?$AA?$AA@ 000000018001fa38     libappcrt:lcidtoname_downlevel.obj
 0002:00004a48       ??_C@_1M@PMBNDPHD@?$AAh?$AAr?$AA?9?$AAb?$AAa?$AA?$AA@ 000000018001fa48     libappcrt:lcidtoname_downlevel.obj
 0002:00004a58       ??_C@_1M@BPCKOEGE@?$AAh?$AAr?$AA?9?$AAh?$AAr?$AA?$AA@ 000000018001fa58     libappcrt:lcidtoname_downlevel.obj
 0002:00004a68       ??_C@_1M@GACBMHKE@?$AAh?$AAu?$AA?9?$AAh?$AAu?$AA?$AA@ 000000018001fa68     libappcrt:lcidtoname_downlevel.obj
 0002:00004a78       ??_C@_1M@MILPAJJC@?$AAh?$AAy?$AA?9?$AAa?$AAm?$AA?$AA@ 000000018001fa78     libappcrt:lcidtoname_downlevel.obj
 0002:00004a88       ??_C@_1M@BABBICEC@?$AAi?$AAd?$AA?9?$AAi?$AAd?$AA?$AA@ 000000018001fa88     libappcrt:lcidtoname_downlevel.obj
 0002:00004a98       ??_C@_1M@BIKNHHPF@?$AAi?$AAs?$AA?9?$AAi?$AAs?$AA?$AA@ 000000018001fa98     libappcrt:lcidtoname_downlevel.obj
 0002:00004aa8       ??_C@_1M@NMPCJPHE@?$AAi?$AAt?$AA?9?$AAc?$AAh?$AA?$AA@ 000000018001faa8     libappcrt:lcidtoname_downlevel.obj
 0002:00004ab8       ??_C@_1M@GHKGFEDF@?$AAi?$AAt?$AA?9?$AAi?$AAt?$AA?$AA@ 000000018001fab8     libappcrt:lcidtoname_downlevel.obj
 0002:00004ac8       ??_C@_1M@NIEJCJJA@?$AAj?$AAa?$AA?9?$AAj?$AAp?$AA?$AA@ 000000018001fac8     libappcrt:lcidtoname_downlevel.obj
 0002:00004ad8       ??_C@_1M@JILFNBIM@?$AAk?$AAa?$AA?9?$AAg?$AAe?$AA?$AA@ 000000018001fad8     libappcrt:lcidtoname_downlevel.obj
 0002:00004ae8       ??_C@_1M@PACPMGPH@?$AAk?$AAk?$AA?9?$AAk?$AAz?$AA?$AA@ 000000018001fae8     libappcrt:lcidtoname_downlevel.obj
 0002:00004af8       ??_C@_1M@IELFGMHA@?$AAk?$AAn?$AA?9?$AAi?$AAn?$AA?$AA@ 000000018001faf8     libappcrt:lcidtoname_downlevel.obj
 0002:00004b08       ??_C@_1O@IBBJHCH@?$AAk?$AAo?$AAk?$AA?9?$AAi?$AAn?$AA?$AA@ 000000018001fb08     libappcrt:lcidtoname_downlevel.obj
 0002:00004b18       ??_C@_1M@DMHAEOGC@?$AAk?$AAo?$AA?9?$AAk?$AAr?$AA?$AA@ 000000018001fb18     libappcrt:lcidtoname_downlevel.obj
 0002:00004b28       ??_C@_1M@HBAHBIGA@?$AAk?$AAy?$AA?9?$AAk?$AAg?$AA?$AA@ 000000018001fb28     libappcrt:lcidtoname_downlevel.obj
 0002:00004b38       ??_C@_1M@KPMILCJG@?$AAl?$AAt?$AA?9?$AAl?$AAt?$AA?$AA@ 000000018001fb38     libappcrt:lcidtoname_downlevel.obj
 0002:00004b48       ??_C@_1M@BDEKKCA@?$AAl?$AAv?$AA?9?$AAl?$AAv?$AA?$AA@ 000000018001fb48     libappcrt:lcidtoname_downlevel.obj
 0002:00004b58       ??_C@_1M@ELCKCCJJ@?$AAm?$AAi?$AA?9?$AAn?$AAz?$AA?$AA@ 000000018001fb58     libappcrt:lcidtoname_downlevel.obj
 0002:00004b68       ??_C@_1M@CBOOLAPA@?$AAm?$AAk?$AA?9?$AAm?$AAk?$AA?$AA@ 000000018001fb68     libappcrt:lcidtoname_downlevel.obj
 0002:00004b78       ??_C@_1M@GPHNBJKN@?$AAm?$AAl?$AA?9?$AAi?$AAn?$AA?$AA@ 000000018001fb78     libappcrt:lcidtoname_downlevel.obj
 0002:00004b88       ??_C@_1M@PABJILIG@?$AAm?$AAn?$AA?9?$AAm?$AAn?$AA?$AA@ 000000018001fb88     libappcrt:lcidtoname_downlevel.obj
 0002:00004b98       ??_C@_1M@FGBKKIPG@?$AAm?$AAr?$AA?9?$AAi?$AAn?$AA?$AA@ 000000018001fb98     libappcrt:lcidtoname_downlevel.obj
 0002:00004ba8       ??_C@_1M@NDBPDDAL@?$AAm?$AAs?$AA?9?$AAb?$AAn?$AA?$AA@ 000000018001fba8     libappcrt:lcidtoname_downlevel.obj
 0002:00004bb8       ??_C@_1M@OPIHOOPI@?$AAm?$AAs?$AA?9?$AAm?$AAy?$AA?$AA@ 000000018001fbb8     libappcrt:lcidtoname_downlevel.obj
 0002:00004bc8       ??_C@_1M@PPDBCNFM@?$AAm?$AAt?$AA?9?$AAm?$AAt?$AA?$AA@ 000000018001fbc8     libappcrt:lcidtoname_downlevel.obj
 0002:00004bd8       ??_C@_1M@KDJDKMDD@?$AAn?$AAb?$AA?9?$AAn?$AAo?$AA?$AA@ 000000018001fbd8     libappcrt:lcidtoname_downlevel.obj
 0002:00004be8       ??_C@_1M@KFCFLMJP@?$AAn?$AAl?$AA?9?$AAb?$AAe?$AA?$AA@ 000000018001fbe8     libappcrt:lcidtoname_downlevel.obj
 0002:00004bf8       ??_C@_1M@KPOPDDGO@?$AAn?$AAl?$AA?9?$AAn?$AAl?$AA?$AA@ 000000018001fbf8     libappcrt:lcidtoname_downlevel.obj
 0002:00004c08       ??_C@_1M@LJKPEMLN@?$AAn?$AAn?$AA?9?$AAn?$AAo?$AA?$AA@ 000000018001fc08     libappcrt:lcidtoname_downlevel.obj
 0002:00004c18       ??_C@_1M@BDGHHBFL@?$AAn?$AAs?$AA?9?$AAz?$AAa?$AA?$AA@ 000000018001fc18     libappcrt:lcidtoname_downlevel.obj
 0002:00004c28       ??_C@_1M@IDEHOAP@?$AAp?$AAa?$AA?9?$AAi?$AAn?$AA?$AA@ 000000018001fc28     libappcrt:lcidtoname_downlevel.obj
 0002:00004c38       ??_C@_1M@HDBKGOGH@?$AAp?$AAl?$AA?9?$AAp?$AAl?$AA?$AA@ 000000018001fc38     libappcrt:lcidtoname_downlevel.obj
 0002:00004c48       ??_C@_1M@LJLLCMEH@?$AAp?$AAt?$AA?9?$AAb?$AAr?$AA?$AA@ 000000018001fc48     libappcrt:lcidtoname_downlevel.obj
 0002:00004c58       ??_C@_1M@NCMONAAL@?$AAp?$AAt?$AA?9?$AAp?$AAt?$AA?$AA@ 000000018001fc58     libappcrt:lcidtoname_downlevel.obj
 0002:00004c68       ??_C@_1O@EAKMAJDN@?$AAq?$AAu?$AAz?$AA?9?$AAb?$AAo?$AA?$AA@ 000000018001fc68     libappcrt:lcidtoname_downlevel.obj
 0002:00004c78       ??_C@_1O@BHHPIGDN@?$AAq?$AAu?$AAz?$AA?9?$AAe?$AAc?$AA?$AA@ 000000018001fc78     libappcrt:lcidtoname_downlevel.obj
 0002:00004c88       ??_C@_1O@GBAPEKMJ@?$AAq?$AAu?$AAz?$AA?9?$AAp?$AAe?$AA?$AA@ 000000018001fc88     libappcrt:lcidtoname_downlevel.obj
 0002:00004c98       ??_C@_1M@CLGLEFBO@?$AAr?$AAo?$AA?9?$AAr?$AAo?$AA?$AA@ 000000018001fc98     libappcrt:lcidtoname_downlevel.obj
 0002:00004ca8       ??_C@_1M@CEEDODME@?$AAr?$AAu?$AA?9?$AAr?$AAu?$AA?$AA@ 000000018001fca8     libappcrt:lcidtoname_downlevel.obj
 0002:00004cb8       ??_C@_1M@HPKKKMPP@?$AAs?$AAa?$AA?9?$AAi?$AAn?$AA?$AA@ 000000018001fcb8     libappcrt:lcidtoname_downlevel.obj
 0002:00004cc8       ??_C@_1M@BKMAIGOJ@?$AAs?$AAe?$AA?9?$AAf?$AAi?$AA?$AA@ 000000018001fcc8     libappcrt:lcidtoname_downlevel.obj
 0002:00004cd8       ??_C@_1M@NDPIFLFI@?$AAs?$AAe?$AA?9?$AAn?$AAo?$AA?$AA@ 000000018001fcd8     libappcrt:lcidtoname_downlevel.obj
 0002:00004ce8       ??_C@_1M@DANKKHJ@?$AAs?$AAe?$AA?9?$AAs?$AAe?$AA?$AA@ 000000018001fce8     libappcrt:lcidtoname_downlevel.obj
 0002:00004cf8       ??_C@_1M@PNBLONPJ@?$AAs?$AAk?$AA?9?$AAs?$AAk?$AA?$AA@ 000000018001fcf8     libappcrt:lcidtoname_downlevel.obj
 0002:00004d08       ??_C@_1M@LFMODOAL@?$AAs?$AAl?$AA?9?$AAs?$AAi?$AA?$AA@ 000000018001fd08     libappcrt:lcidtoname_downlevel.obj
 0002:00004d18       ??_C@_1O@DFKOMPG@?$AAs?$AAm?$AAa?$AA?9?$AAn?$AAo?$AA?$AA@ 000000018001fd18     libappcrt:lcidtoname_downlevel.obj
 0002:00004d28       ??_C@_1O@NDKPBNNH@?$AAs?$AAm?$AAa?$AA?9?$AAs?$AAe?$AA?$AA@ 000000018001fd28     libappcrt:lcidtoname_downlevel.obj
 0002:00004d38       ??_C@_1O@PLLKBHAB@?$AAs?$AAm?$AAj?$AA?9?$AAn?$AAo?$AA?$AA@ 000000018001fd38     libappcrt:lcidtoname_downlevel.obj
 0002:00004d48       ??_C@_1O@CLEPOGCA@?$AAs?$AAm?$AAj?$AA?9?$AAs?$AAe?$AA?$AA@ 000000018001fd48     libappcrt:lcidtoname_downlevel.obj
 0002:00004d58       ??_C@_1O@DLGJGKMK@?$AAs?$AAm?$AAn?$AA?9?$AAf?$AAi?$AA?$AA@ 000000018001fd58     libappcrt:lcidtoname_downlevel.obj
 0002:00004d68       ??_C@_1O@OJDJGAJC@?$AAs?$AAm?$AAs?$AA?9?$AAf?$AAi?$AA?$AA@ 000000018001fd68     libappcrt:lcidtoname_downlevel.obj
 0002:00004d78       ??_C@_1M@BOFOGHPB@?$AAs?$AAq?$AA?9?$AAa?$AAl?$AA?$AA@ 000000018001fd78     libappcrt:lcidtoname_downlevel.obj
 0002:00004d88       ??_C@_1BG@LJBBIPGB@?$AAs?$AAr?$AA?9?$AAb?$AAa?$AA?9?$AAc?$AAy?$AAr?$AAl?$AA?$AA@ 000000018001fd88     libappcrt:lcidtoname_downlevel.obj
 0002:00004da0       ??_C@_1BG@JLBENFOE@?$AAs?$AAr?$AA?9?$AAb?$AAa?$AA?9?$AAl?$AAa?$AAt?$AAn?$AA?$AA@ 000000018001fda0     libappcrt:lcidtoname_downlevel.obj
 0002:00004db8       ??_C@_1BG@KODPNHE@?$AAs?$AAr?$AA?9?$AAs?$AAp?$AA?9?$AAc?$AAy?$AAr?$AAl?$AA?$AA@ 000000018001fdb8     libappcrt:lcidtoname_downlevel.obj
 0002:00004dd0       ??_C@_1BG@CIOGKHPB@?$AAs?$AAr?$AA?9?$AAs?$AAp?$AA?9?$AAl?$AAa?$AAt?$AAn?$AA?$AA@ 000000018001fdd0     libappcrt:lcidtoname_downlevel.obj
 0002:00004de8       ??_C@_1M@NGFJLMAC@?$AAs?$AAv?$AA?9?$AAf?$AAi?$AA?$AA@ 000000018001fde8     libappcrt:lcidtoname_downlevel.obj
 0002:00004df8       ??_C@_1M@MPJEJAJC@?$AAs?$AAv?$AA?9?$AAs?$AAe?$AA?$AA@ 000000018001fdf8     libappcrt:lcidtoname_downlevel.obj
 0002:00004e08       ??_C@_1M@MPNDHLFK@?$AAs?$AAw?$AA?9?$AAk?$AAe?$AA?$AA@ 000000018001fe08     libappcrt:lcidtoname_downlevel.obj
 0002:00004e18       ??_C@_1O@KOHBJJI@?$AAs?$AAy?$AAr?$AA?9?$AAs?$AAy?$AA?$AA@ 000000018001fe18     libappcrt:lcidtoname_downlevel.obj
 0002:00004e28       ??_C@_1M@LDCEFHA@?$AAt?$AAa?$AA?9?$AAi?$AAn?$AA?$AA@ 000000018001fe28     libappcrt:lcidtoname_downlevel.obj
 0002:00004e38       ??_C@_1M@CNJOFAK@?$AAt?$AAe?$AA?9?$AAi?$AAn?$AA?$AA@ 000000018001fe38     libappcrt:lcidtoname_downlevel.obj
 0002:00004e48       ??_C@_1M@GNAECACD@?$AAt?$AAh?$AA?9?$AAt?$AAh?$AA?$AA@ 000000018001fe48     libappcrt:lcidtoname_downlevel.obj
 0002:00004e58       ??_C@_1M@CHBIHOJO@?$AAt?$AAn?$AA?9?$AAz?$AAa?$AA?$AA@ 000000018001fe58     libappcrt:lcidtoname_downlevel.obj
 0002:00004e68       ??_C@_1M@GCCMIGPJ@?$AAt?$AAr?$AA?9?$AAt?$AAr?$AA?$AA@ 000000018001fe68     libappcrt:lcidtoname_downlevel.obj
 0002:00004e78       ??_C@_1M@CELMCNBK@?$AAt?$AAt?$AA?9?$AAr?$AAu?$AA?$AA@ 000000018001fe78     libappcrt:lcidtoname_downlevel.obj
 0002:00004e88       ??_C@_1M@KLMCELGA@?$AAu?$AAk?$AA?9?$AAu?$AAa?$AA?$AA@ 000000018001fe88     libappcrt:lcidtoname_downlevel.obj
 0002:00004e98       ??_C@_1M@EPAJJAJF@?$AAu?$AAr?$AA?9?$AAp?$AAk?$AA?$AA@ 000000018001fe98     libappcrt:lcidtoname_downlevel.obj
 0002:00004ea8       ??_C@_1BG@GEGPMCDJ@?$AAu?$AAz?$AA?9?$AAu?$AAz?$AA?9?$AAc?$AAy?$AAr?$AAl?$AA?$AA@ 000000018001fea8     libappcrt:lcidtoname_downlevel.obj
 0002:00004ec0       ??_C@_1BG@EGGKJILM@?$AAu?$AAz?$AA?9?$AAu?$AAz?$AA?9?$AAl?$AAa?$AAt?$AAn?$AA?$AA@ 000000018001fec0     libappcrt:lcidtoname_downlevel.obj
 0002:00004ed8       ??_C@_1M@GFOCLFF@?$AAv?$AAi?$AA?9?$AAv?$AAn?$AA?$AA@ 000000018001fed8     libappcrt:lcidtoname_downlevel.obj
 0002:00004ee8       ??_C@_1M@CPAMEDFI@?$AAx?$AAh?$AA?9?$AAz?$AAa?$AA?$AA@ 000000018001fee8     libappcrt:lcidtoname_downlevel.obj
 0002:00004ef8       ??_C@_1O@EBKIFIGN@?$AAz?$AAh?$AA?9?$AAc?$AAh?$AAs?$AA?$AA@ 000000018001fef8     libappcrt:lcidtoname_downlevel.obj
 0002:00004f08       ??_C@_1O@NMHPGANE@?$AAz?$AAh?$AA?9?$AAc?$AAh?$AAt?$AA?$AA@ 000000018001ff08     libappcrt:lcidtoname_downlevel.obj
 0002:00004f18       ??_C@_1M@LPINJOMC@?$AAz?$AAh?$AA?9?$AAc?$AAn?$AA?$AA@ 000000018001ff18     libappcrt:lcidtoname_downlevel.obj
 0002:00004f28       ??_C@_1M@OCJEJODD@?$AAz?$AAh?$AA?9?$AAh?$AAk?$AA?$AA@ 000000018001ff28     libappcrt:lcidtoname_downlevel.obj
 0002:00004f38       ??_C@_1M@DNDLJINH@?$AAz?$AAh?$AA?9?$AAm?$AAo?$AA?$AA@ 000000018001ff38     libappcrt:lcidtoname_downlevel.obj
 0002:00004f48       ??_C@_1M@MBFDNDND@?$AAz?$AAh?$AA?9?$AAs?$AAg?$AA?$AA@ 000000018001ff48     libappcrt:lcidtoname_downlevel.obj
 0002:00004f58       ??_C@_1M@IMEPLEPE@?$AAz?$AAh?$AA?9?$AAt?$AAw?$AA?$AA@ 000000018001ff58     libappcrt:lcidtoname_downlevel.obj
 0002:00004f68       ??_C@_1M@BBGHNHJP@?$AAz?$AAu?$AA?9?$AAz?$AAa?$AA?$AA@ 000000018001ff68     libappcrt:lcidtoname_downlevel.obj
 0002:00004f74       ??_C@_15EMKDOKLE@?$AAa?$AAr?$AA?$AA@ 000000018001ff74     libappcrt:lcidtoname_downlevel.obj
 0002:00004f7c       ??_C@_15KNPADPLH@?$AAb?$AAg?$AA?$AA@ 000000018001ff7c     libappcrt:lcidtoname_downlevel.obj
 0002:00004f84       ??_C@_15EDMHLDMO@?$AAc?$AAa?$AA?$AA@ 000000018001ff84     libappcrt:lcidtoname_downlevel.obj
 0002:00004f90       ??_C@_1O@BPEAJADD@?$AAz?$AAh?$AA?9?$AAC?$AAH?$AAS?$AA?$AA@ 000000018001ff90     libappcrt:lcidtoname_downlevel.obj
 0002:00004fa0       ??_C@_15LJNHCMNK@?$AAc?$AAs?$AA?$AA@ 000000018001ffa0     libappcrt:lcidtoname_downlevel.obj
 0002:00004fa8       ??_C@_15FOMCIDHG@?$AAd?$AAa?$AA?$AA@ 000000018001ffa8     libappcrt:lcidtoname_downlevel.obj
 0002:00004fb0       ??_C@_15NBKABECB@?$AAd?$AAe?$AA?$AA@ 000000018001ffb0     libappcrt:lcidtoname_downlevel.obj
 0002:00004fb8       ??_C@_15GHPEIIAO@?$AAe?$AAl?$AA?$AA@ 000000018001ffb8     libappcrt:lcidtoname_downlevel.obj
 0002:00004fc0       ??_C@_15MNPNEAIF@?$AAe?$AAn?$AA?$AA@ 000000018001ffc0     libappcrt:lcidtoname_downlevel.obj
 0002:00004fc8       ??_C@_15GPIOMPMH@?$AAe?$AAs?$AA?$AA@ 000000018001ffc8     libappcrt:lcidtoname_downlevel.obj
 0002:00004fd0       ??_C@_15NGLOAKJC@?$AAf?$AAi?$AA?$AA@ 000000018001ffd0     libappcrt:lcidtoname_downlevel.obj
 0002:00004fd8       ??_C@_15FBKGNKAM@?$AAf?$AAr?$AA?$AA@ 000000018001ffd8     libappcrt:lcidtoname_downlevel.obj
 0002:00004fe0       ??_C@_15KGGCNEFK@?$AAh?$AAe?$AA?$AA@ 000000018001ffe0     libappcrt:lcidtoname_downlevel.obj
 0002:00004fe8       ??_C@_15PGHLIDMF@?$AAh?$AAu?$AA?$AA@ 000000018001ffe8     libappcrt:lcidtoname_downlevel.obj
 0002:00004ff0       ??_C@_15BIEMAPLM@?$AAi?$AAs?$AA?$AA@ 000000018001fff0     libappcrt:lcidtoname_downlevel.obj
 0002:00004ff8       ??_C@_15IFJLDHAF@?$AAi?$AAt?$AA?$AA@ 000000018001fff8     libappcrt:lcidtoname_downlevel.obj
 0002:00005000       ??_C@_15GEMIOCAG@?$AAj?$AAa?$AA?$AA@ 0000000180020000     libappcrt:lcidtoname_downlevel.obj
 0002:00005008       ??_C@_15EPELEGJA@?$AAk?$AAo?$AA?$AA@ 0000000180020008     libappcrt:lcidtoname_downlevel.obj
 0002:00005010       ??_C@_15NDDHIMN@?$AAn?$AAl?$AA?$AA@ 0000000180020010     libappcrt:lcidtoname_downlevel.obj
 0002:00005018       ??_C@_15BPIGNHCD@?$AAn?$AAo?$AA?$AA@ 0000000180020018     libappcrt:lcidtoname_downlevel.obj
 0002:00005020       ??_C@_15DEOPBLCG@?$AAp?$AAl?$AA?$AA@ 0000000180020020     libappcrt:lcidtoname_downlevel.obj
 0002:00005028       ??_C@_15KBECGEFG@?$AAp?$AAt?$AA?$AA@ 0000000180020028     libappcrt:lcidtoname_downlevel.obj
 0002:00005030       ??_C@_15GLJCBFMD@?$AAr?$AAo?$AA?$AA@ 0000000180020030     libappcrt:lcidtoname_downlevel.obj
 0002:00005038       ??_C@_15FEDGKCDI@?$AAr?$AAu?$AA?$AA@ 0000000180020038     libappcrt:lcidtoname_downlevel.obj
 0002:00005040       ??_C@_15GLKMLLHM@?$AAh?$AAr?$AA?$AA@ 0000000180020040     libappcrt:lcidtoname_downlevel.obj
 0002:00005048       ??_C@_15CPKMFBDB@?$AAs?$AAk?$AA?$AA@ 0000000180020048     libappcrt:lcidtoname_downlevel.obj
 0002:00005050       ??_C@_15BAAIOGMK@?$AAs?$AAq?$AA?$AA@ 0000000180020050     libappcrt:lcidtoname_downlevel.obj
 0002:00005058       ??_C@_15INNPNOHD@?$AAs?$AAv?$AA?$AA@ 0000000180020058     libappcrt:lcidtoname_downlevel.obj
 0002:00005060       ??_C@_15CABMMOGH@?$AAt?$AAh?$AA?$AA@ 0000000180020060     libappcrt:lcidtoname_downlevel.obj
 0002:00005068       ??_C@_15BPLIHJJM@?$AAt?$AAr?$AA?$AA@ 0000000180020068     libappcrt:lcidtoname_downlevel.obj
 0002:00005070       ??_C@_15NEOEKKDJ@?$AAu?$AAr?$AA?$AA@ 0000000180020070     libappcrt:lcidtoname_downlevel.obj
 0002:00005078       ??_C@_15NFICGAJK@?$AAi?$AAd?$AA?$AA@ 0000000180020078     libappcrt:lcidtoname_downlevel.obj
 0002:00005080       ??_C@_15PJPFLCCM@?$AAu?$AAk?$AA?$AA@ 0000000180020080     libappcrt:lcidtoname_downlevel.obj
 0002:00005088       ??_C@_15HPJPHDM@?$AAb?$AAe?$AA?$AA@ 0000000180020088     libappcrt:lcidtoname_downlevel.obj
 0002:00005090       ??_C@_15LCHLGJII@?$AAs?$AAl?$AA?$AA@ 0000000180020090     libappcrt:lcidtoname_downlevel.obj
 0002:00005098       ??_C@_15PCFJPHHO@?$AAe?$AAt?$AA?$AA@ 0000000180020098     libappcrt:lcidtoname_downlevel.obj
 0002:000050a0       ??_C@_15HPFPGODN@?$AAl?$AAv?$AA?$AA@ 00000001800200a0     libappcrt:lcidtoname_downlevel.obj
 0002:000050a8       ??_C@_15NFFGKGLG@?$AAl?$AAt?$AA?$AA@ 00000001800200a8     libappcrt:lcidtoname_downlevel.obj
 0002:000050b0       ??_C@_15BDAKCCHN@?$AAf?$AAa?$AA?$AA@ 00000001800200b0     libappcrt:lcidtoname_downlevel.obj
 0002:000050b8       ??_C@_15NFGIAIAJ@?$AAv?$AAi?$AA?$AA@ 00000001800200b8     libappcrt:lcidtoname_downlevel.obj
 0002:000050c0       ??_C@_15LMKNDMHN@?$AAh?$AAy?$AA?$AA@ 00000001800200c0     libappcrt:lcidtoname_downlevel.obj
 0002:000050c8       ??_C@_15IJBHMCFL@?$AAa?$AAz?$AA?$AA@ 00000001800200c8     libappcrt:lcidtoname_downlevel.obj
 0002:000050d0       ??_C@_15EKOFJABL@?$AAe?$AAu?$AA?$AA@ 00000001800200d0     libappcrt:lcidtoname_downlevel.obj
 0002:000050d8       ??_C@_15BGHADCNK@?$AAm?$AAk?$AA?$AA@ 00000001800200d8     libappcrt:lcidtoname_downlevel.obj
 0002:000050e0       ??_C@_15JDNICKHM@?$AAa?$AAf?$AA?$AA@ 00000001800200e0     libappcrt:lcidtoname_downlevel.obj
 0002:000050e8       ??_C@_15KPJEDBKD@?$AAk?$AAa?$AA?$AA@ 00000001800200e8     libappcrt:lcidtoname_downlevel.obj
 0002:000050f0       ??_C@_15PDNFFFEO@?$AAf?$AAo?$AA?$AA@ 00000001800200f0     libappcrt:lcidtoname_downlevel.obj
 0002:000050f8       ??_C@_15OMLEGLOC@?$AAh?$AAi?$AA?$AA@ 00000001800200f8     libappcrt:lcidtoname_downlevel.obj
 0002:00005100       ??_C@_15IDNNENKK@?$AAm?$AAs?$AA?$AA@ 0000000180020100     libappcrt:lcidtoname_downlevel.obj
 0002:00005108       ??_C@_15MACJNBMH@?$AAk?$AAk?$AA?$AA@ 0000000180020108     libappcrt:lcidtoname_downlevel.obj
 0002:00005110       ??_C@_15DKDJEOND@?$AAk?$AAy?$AA?$AA@ 0000000180020110     libappcrt:lcidtoname_downlevel.obj
 0002:00005118       ??_C@_15DFGDLJBG@?$AAs?$AAw?$AA?$AA@ 0000000180020118     libappcrt:lcidtoname_downlevel.obj
 0002:00005120       ??_C@_15BBFAICNG@?$AAu?$AAz?$AA?$AA@ 0000000180020120     libappcrt:lcidtoname_downlevel.obj
 0002:00005128       ??_C@_15DKNDCGEA@?$AAt?$AAt?$AA?$AA@ 0000000180020128     libappcrt:lcidtoname_downlevel.obj
 0002:00005130       ??_C@_15MGIFMDPL@?$AAp?$AAa?$AA?$AA@ 0000000180020130     libappcrt:lcidtoname_downlevel.obj
 0002:00005138       ??_C@_15HCNDBBA@?$AAg?$AAu?$AA?$AA@ 0000000180020138     libappcrt:lcidtoname_downlevel.obj
 0002:00005140       ??_C@_15FNBEIBON@?$AAt?$AAa?$AA?$AA@ 0000000180020140     libappcrt:lcidtoname_downlevel.obj
 0002:00005148       ??_C@_15NCHGBGLK@?$AAt?$AAe?$AA?$AA@ 0000000180020148     libappcrt:lcidtoname_downlevel.obj
 0002:00005150       ??_C@_15PHPHCBPF@?$AAk?$AAn?$AA?$AA@ 0000000180020150     libappcrt:lcidtoname_downlevel.obj
 0002:00005158       ??_C@_15DLGBCKMP@?$AAm?$AAr?$AA?$AA@ 0000000180020158     libappcrt:lcidtoname_downlevel.obj
 0002:00005160       ??_C@_15EABBLBFF@?$AAs?$AAa?$AA?$AA@ 0000000180020160     libappcrt:lcidtoname_downlevel.obj
 0002:00005168       ??_C@_15CBKOMCOI@?$AAm?$AAn?$AA?$AA@ 0000000180020168     libappcrt:lcidtoname_downlevel.obj
 0002:00005170       ??_C@_15CKDMCJAF@?$AAg?$AAl?$AA?$AA@ 0000000180020170     libappcrt:lcidtoname_downlevel.obj
 0002:00005178       ??_C@_17CNJFBPG@?$AAk?$AAo?$AAk?$AA?$AA@ 0000000180020178     libappcrt:lcidtoname_downlevel.obj
 0002:00005180       ??_C@_17FFBJICPL@?$AAs?$AAy?$AAr?$AA?$AA@ 0000000180020180     libappcrt:lcidtoname_downlevel.obj
 0002:00005188       ??_C@_17KPNDCPAF@?$AAd?$AAi?$AAv?$AA?$AA@ 0000000180020188     libappcrt:lcidtoname_downlevel.obj
 0002:00005190       ??_C@_11LOCGONAA@?$AA?$AA@ 0000000180020190     libappcrt:lcidtoname_downlevel.obj
 0002:00005198       ??_C@_1M@OKAHONE@?$AAa?$AAr?$AA?9?$AAS?$AAA?$AA?$AA@ 0000000180020198     libappcrt:lcidtoname_downlevel.obj
 0002:000051a8       ??_C@_1M@FFFIGIGK@?$AAb?$AAg?$AA?9?$AAB?$AAG?$AA?$AA@ 00000001800201a8     libappcrt:lcidtoname_downlevel.obj
 0002:000051b8       ??_C@_1M@BJNKEDC@?$AAc?$AAa?$AA?9?$AAE?$AAS?$AA?$AA@ 00000001800201b8     libappcrt:lcidtoname_downlevel.obj
 0002:000051c8       ??_C@_1M@IJJHFJHA@?$AAc?$AAs?$AA?9?$AAC?$AAZ?$AA?$AA@ 00000001800201c8     libappcrt:lcidtoname_downlevel.obj
 0002:000051d8       ??_C@_1M@CLPEOBGI@?$AAd?$AAa?$AA?9?$AAD?$AAK?$AA?$AA@ 00000001800201d8     libappcrt:lcidtoname_downlevel.obj
 0002:000051e8       ??_C@_1M@MCMADGCB@?$AAd?$AAe?$AA?9?$AAD?$AAE?$AA?$AA@ 00000001800201e8     libappcrt:lcidtoname_downlevel.obj
 0002:000051f8       ??_C@_1M@OOCKEMAM@?$AAe?$AAl?$AA?9?$AAG?$AAR?$AA?$AA@ 00000001800201f8     libappcrt:lcidtoname_downlevel.obj
 0002:00005208       ??_C@_1M@DDNJFGID@?$AAf?$AAi?$AA?9?$AAF?$AAI?$AA?$AA@ 0000000180020208     libappcrt:lcidtoname_downlevel.obj
 0002:00005218       ??_C@_1M@GLIPPMAC@?$AAf?$AAr?$AA?9?$AAF?$AAR?$AA?$AA@ 0000000180020218     libappcrt:lcidtoname_downlevel.obj
 0002:00005228       ??_C@_1M@GFMCHPE@?$AAh?$AAe?$AA?9?$AAI?$AAL?$AA?$AA@ 0000000180020228     libappcrt:lcidtoname_downlevel.obj
 0002:00005238       ??_C@_1M@MHLPGNKM@?$AAh?$AAu?$AA?9?$AAH?$AAU?$AA?$AA@ 0000000180020238     libappcrt:lcidtoname_downlevel.obj
 0002:00005248       ??_C@_1M@LPDDNNPN@?$AAi?$AAs?$AA?9?$AAI?$AAS?$AA?$AA@ 0000000180020248     libappcrt:lcidtoname_downlevel.obj
 0002:00005258       ??_C@_1M@MADIPODN@?$AAi?$AAt?$AA?9?$AAI?$AAT?$AA?$AA@ 0000000180020258     libappcrt:lcidtoname_downlevel.obj
 0002:00005268       ??_C@_1M@IHBJJGG@?$AAn?$AAl?$AA?9?$AAN?$AAL?$AA?$AA@ 0000000180020268     libappcrt:lcidtoname_downlevel.obj
 0002:00005278       ??_C@_1M@EANAGDL@?$AAn?$AAb?$AA?9?$AAN?$AAO?$AA?$AA@ 0000000180020278     libappcrt:lcidtoname_downlevel.obj
 0002:00005288       ??_C@_1M@NEIEMEGP@?$AAp?$AAl?$AA?9?$AAP?$AAL?$AA?$AA@ 0000000180020288     libappcrt:lcidtoname_downlevel.obj
 0002:00005298       ??_C@_1M@BOCFIGEP@?$AAp?$AAt?$AA?9?$AAB?$AAR?$AA?$AA@ 0000000180020298     libappcrt:lcidtoname_downlevel.obj
 0002:000052a8       ??_C@_1M@IMPFOPBG@?$AAr?$AAo?$AA?9?$AAR?$AAO?$AA?$AA@ 00000001800202a8     libappcrt:lcidtoname_downlevel.obj
 0002:000052b8       ??_C@_1M@IDNNEJMM@?$AAr?$AAu?$AA?9?$AAR?$AAU?$AA?$AA@ 00000001800202b8     libappcrt:lcidtoname_downlevel.obj
 0002:000052c8       ??_C@_1M@LILEEOGM@?$AAh?$AAr?$AA?9?$AAH?$AAR?$AA?$AA@ 00000001800202c8     libappcrt:lcidtoname_downlevel.obj
 0002:000052d8       ??_C@_1M@FKIFEHPB@?$AAs?$AAk?$AA?9?$AAS?$AAK?$AA?$AA@ 00000001800202d8     libappcrt:lcidtoname_downlevel.obj
 0002:000052e8       ??_C@_1M@LJMAMNPJ@?$AAs?$AAq?$AA?9?$AAA?$AAL?$AA?$AA@ 00000001800202e8     libappcrt:lcidtoname_downlevel.obj
 0002:000052f8       ??_C@_1M@GIAKDKJK@?$AAs?$AAv?$AA?9?$AAS?$AAE?$AA?$AA@ 00000001800202f8     libappcrt:lcidtoname_downlevel.obj
 0002:00005308       ??_C@_1M@MKJKIKCL@?$AAt?$AAh?$AA?9?$AAT?$AAH?$AA?$AA@ 0000000180020308     libappcrt:lcidtoname_downlevel.obj
 0002:00005318       ??_C@_1M@MFLCCMPB@?$AAt?$AAr?$AA?9?$AAT?$AAR?$AA?$AA@ 0000000180020318     libappcrt:lcidtoname_downlevel.obj
 0002:00005328       ??_C@_1M@OIJHDKJN@?$AAu?$AAr?$AA?9?$AAP?$AAK?$AA?$AA@ 0000000180020328     libappcrt:lcidtoname_downlevel.obj
 0002:00005338       ??_C@_1M@LHIPCIEK@?$AAi?$AAd?$AA?9?$AAI?$AAD?$AA?$AA@ 0000000180020338     libappcrt:lcidtoname_downlevel.obj
 0002:00005348       ??_C@_1M@MFMOBGI@?$AAu?$AAk?$AA?9?$AAU?$AAA?$AA?$AA@ 0000000180020348     libappcrt:lcidtoname_downlevel.obj
 0002:00005358       ??_C@_1M@OBGLJIPL@?$AAb?$AAe?$AA?9?$AAB?$AAY?$AA?$AA@ 0000000180020358     libappcrt:lcidtoname_downlevel.obj
 0002:00005368       ??_C@_1M@BCFAJEAD@?$AAs?$AAl?$AA?9?$AAS?$AAI?$AA?$AA@ 0000000180020368     libappcrt:lcidtoname_downlevel.obj
 0002:00005378       ??_C@_1M@FKFFEDDN@?$AAe?$AAt?$AA?9?$AAE?$AAE?$AA?$AA@ 0000000180020378     libappcrt:lcidtoname_downlevel.obj
 0002:00005388       ??_C@_1M@KGKKAACI@?$AAl?$AAv?$AA?9?$AAL?$AAV?$AA?$AA@ 0000000180020388     libappcrt:lcidtoname_downlevel.obj
 0002:00005398       ??_C@_1M@IFGBIJO@?$AAl?$AAt?$AA?9?$AAL?$AAT?$AA?$AA@ 0000000180020398     libappcrt:lcidtoname_downlevel.obj
 0002:000053a8       ??_C@_1M@FGEAHEDM@?$AAf?$AAa?$AA?9?$AAI?$AAR?$AA?$AA@ 00000001800203a8     libappcrt:lcidtoname_downlevel.obj
 0002:000053b8       ??_C@_1M@KBMAIBFN@?$AAv?$AAi?$AA?9?$AAV?$AAN?$AA?$AA@ 00000001800203b8     libappcrt:lcidtoname_downlevel.obj
 0002:000053c8       ??_C@_1M@GPCBKDJK@?$AAh?$AAy?$AA?9?$AAA?$AAM?$AA?$AA@ 00000001800203c8     libappcrt:lcidtoname_downlevel.obj
 0002:000053d8       ??_C@_1BG@BECMDDJB@?$AAa?$AAz?$AA?9?$AAA?$AAZ?$AA?9?$AAL?$AAa?$AAt?$AAn?$AA?$AA@ 00000001800203d8     libappcrt:lcidtoname_downlevel.obj
 0002:000053f0       ??_C@_1M@MAOFCAEA@?$AAe?$AAu?$AA?9?$AAE?$AAS?$AA?$AA@ 00000001800203f0     libappcrt:lcidtoname_downlevel.obj
 0002:00005400       ??_C@_1M@IGHABKPI@?$AAm?$AAk?$AA?9?$AAM?$AAK?$AA?$AA@ 0000000180020400     libappcrt:lcidtoname_downlevel.obj
 0002:00005410       ??_C@_1M@IAIGNEJG@?$AAt?$AAn?$AA?9?$AAZ?$AAA?$AA?$AA@ 0000000180020410     libappcrt:lcidtoname_downlevel.obj
 0002:00005420       ??_C@_1M@IIJCOJFA@?$AAx?$AAh?$AA?9?$AAZ?$AAA?$AA?$AA@ 0000000180020420     libappcrt:lcidtoname_downlevel.obj
 0002:00005430       ??_C@_1M@LGPJHNJH@?$AAz?$AAu?$AA?9?$AAZ?$AAA?$AA?$AA@ 0000000180020430     libappcrt:lcidtoname_downlevel.obj
 0002:00005440       ??_C@_1M@HOKAOIO@?$AAa?$AAf?$AA?9?$AAZ?$AAA?$AA?$AA@ 0000000180020440     libappcrt:lcidtoname_downlevel.obj
 0002:00005450       ??_C@_1M@DPCLHLIE@?$AAk?$AAa?$AA?9?$AAG?$AAE?$AA?$AA@ 0000000180020450     libappcrt:lcidtoname_downlevel.obj
 0002:00005460       ??_C@_1M@BLKMHJBI@?$AAf?$AAo?$AA?9?$AAF?$AAO?$AA?$AA@ 0000000180020460     libappcrt:lcidtoname_downlevel.obj
 0002:00005470       ??_C@_1M@LGGJAPPB@?$AAh?$AAi?$AA?9?$AAI?$AAN?$AA?$AA@ 0000000180020470     libappcrt:lcidtoname_downlevel.obj
 0002:00005480       ??_C@_1M@FIKPIHFE@?$AAm?$AAt?$AA?9?$AAM?$AAT?$AA?$AA@ 0000000180020480     libappcrt:lcidtoname_downlevel.obj
 0002:00005490       ??_C@_1M@HEGGPBFA@?$AAs?$AAe?$AA?9?$AAN?$AAO?$AA?$AA@ 0000000180020490     libappcrt:lcidtoname_downlevel.obj
 0002:000054a0       ??_C@_1M@EIBJEEPA@?$AAm?$AAs?$AA?9?$AAM?$AAY?$AA?$AA@ 00000001800204a0     libappcrt:lcidtoname_downlevel.obj
 0002:000054b0       ??_C@_1M@FHLBGMPP@?$AAk?$AAk?$AA?9?$AAK?$AAZ?$AA?$AA@ 00000001800204b0     libappcrt:lcidtoname_downlevel.obj
 0002:000054c0       ??_C@_1M@NGJJLCGI@?$AAk?$AAy?$AA?9?$AAK?$AAG?$AA?$AA@ 00000001800204c0     libappcrt:lcidtoname_downlevel.obj
 0002:000054d0       ??_C@_1M@GIENNBFC@?$AAs?$AAw?$AA?9?$AAK?$AAE?$AA?$AA@ 00000001800204d0     libappcrt:lcidtoname_downlevel.obj
 0002:000054e0       ??_C@_1BG@NDGMJIMJ@?$AAu?$AAz?$AA?9?$AAU?$AAZ?$AA?9?$AAL?$AAa?$AAt?$AAn?$AA?$AA@ 00000001800204e0     libappcrt:lcidtoname_downlevel.obj
 0002:000054f8       ??_C@_1M@IDCCIHBC@?$AAt?$AAt?$AA?9?$AAR?$AAU?$AA?$AA@ 00000001800204f8     libappcrt:lcidtoname_downlevel.obj
 0002:00005508       ??_C@_1M@LOICPMOJ@?$AAb?$AAn?$AA?9?$AAI?$AAN?$AA?$AA@ 0000000180020508     libappcrt:lcidtoname_downlevel.obj
 0002:00005518       ??_C@_1M@KPKKNEAH@?$AAp?$AAa?$AA?9?$AAI?$AAN?$AA?$AA@ 0000000180020518     libappcrt:lcidtoname_downlevel.obj
 0002:00005528       ??_C@_1M@PJGPPBOG@?$AAg?$AAu?$AA?9?$AAI?$AAN?$AA?$AA@ 0000000180020528     libappcrt:lcidtoname_downlevel.obj
 0002:00005538       ??_C@_1M@KMKMOPHI@?$AAt?$AAa?$AA?9?$AAI?$AAN?$AA?$AA@ 0000000180020538     libappcrt:lcidtoname_downlevel.obj
 0002:00005548       ??_C@_1M@KFEHEPAC@?$AAt?$AAe?$AA?9?$AAI?$AAN?$AA?$AA@ 0000000180020548     libappcrt:lcidtoname_downlevel.obj
 0002:00005558       ??_C@_1M@CDCLMGHI@?$AAk?$AAn?$AA?9?$AAI?$AAN?$AA?$AA@ 0000000180020558     libappcrt:lcidtoname_downlevel.obj
 0002:00005568       ??_C@_1M@MIODLDKF@?$AAm?$AAl?$AA?9?$AAI?$AAN?$AA?$AA@ 0000000180020568     libappcrt:lcidtoname_downlevel.obj
 0002:00005578       ??_C@_1M@PBIEACPO@?$AAm?$AAr?$AA?9?$AAI?$AAN?$AA?$AA@ 0000000180020578     libappcrt:lcidtoname_downlevel.obj
 0002:00005588       ??_C@_1M@NIDEAGPH@?$AAs?$AAa?$AA?9?$AAI?$AAN?$AA?$AA@ 0000000180020588     libappcrt:lcidtoname_downlevel.obj
 0002:00005598       ??_C@_1M@FHIHCBIO@?$AAm?$AAn?$AA?9?$AAM?$AAN?$AA?$AA@ 0000000180020598     libappcrt:lcidtoname_downlevel.obj
 0002:000055a8       ??_C@_1M@JAIJPENP@?$AAc?$AAy?$AA?9?$AAG?$AAB?$AA?$AA@ 00000001800205a8     libappcrt:lcidtoname_downlevel.obj
 0002:000055b8       ??_C@_1M@PHGFBEPN@?$AAg?$AAl?$AA?9?$AAE?$AAS?$AA?$AA@ 00000001800205b8     libappcrt:lcidtoname_downlevel.obj
 0002:000055c8       ??_C@_1O@KPIPDNCP@?$AAk?$AAo?$AAk?$AA?9?$AAI?$AAN?$AA?$AA@ 00000001800205c8     libappcrt:lcidtoname_downlevel.obj
 0002:000055d8       ??_C@_1O@KNHJLDJA@?$AAs?$AAy?$AAr?$AA?9?$AAS?$AAY?$AA?$AA@ 00000001800205d8     libappcrt:lcidtoname_downlevel.obj
 0002:000055e8       ??_C@_1O@MKEKBLAH@?$AAd?$AAi?$AAv?$AA?9?$AAM?$AAV?$AA?$AA@ 00000001800205e8     libappcrt:lcidtoname_downlevel.obj
 0002:000055f8       ??_C@_1O@OHDCKDDF@?$AAq?$AAu?$AAz?$AA?9?$AAB?$AAO?$AA?$AA@ 00000001800205f8     libappcrt:lcidtoname_downlevel.obj
 0002:00005608       ??_C@_1M@LEPJNLFD@?$AAn?$AAs?$AA?9?$AAZ?$AAA?$AA?$AA@ 0000000180020608     libappcrt:lcidtoname_downlevel.obj
 0002:00005618       ??_C@_1M@OMLEIIJB@?$AAm?$AAi?$AA?9?$AAN?$AAZ?$AA?$AA@ 0000000180020618     libappcrt:lcidtoname_downlevel.obj
 0002:00005628       ??_C@_1M@PMPEAILG@?$AAa?$AAr?$AA?9?$AAI?$AAQ?$AA?$AA@ 0000000180020628     libappcrt:lcidtoname_downlevel.obj
 0002:00005638       ??_C@_1M@CNKPNOEE@?$AAd?$AAe?$AA?9?$AAC?$AAH?$AA?$AA@ 0000000180020638     libappcrt:lcidtoname_downlevel.obj
 0002:00005648       ??_C@_1M@LKMGMLKO@?$AAe?$AAn?$AA?9?$AAG?$AAB?$AA?$AA@ 0000000180020648     libappcrt:lcidtoname_downlevel.obj
 0002:00005658       ??_C@_1M@PGKJFFGL@?$AAe?$AAs?$AA?9?$AAM?$AAX?$AA?$AA@ 0000000180020658     libappcrt:lcidtoname_downlevel.obj
 0002:00005668       ??_C@_1M@DNNANBDC@?$AAf?$AAr?$AA?9?$AAB?$AAE?$AA?$AA@ 0000000180020668     libappcrt:lcidtoname_downlevel.obj
 0002:00005678       ??_C@_1M@HLGMDFHM@?$AAi?$AAt?$AA?9?$AAC?$AAH?$AA?$AA@ 0000000180020678     libappcrt:lcidtoname_downlevel.obj
 0002:00005688       ??_C@_1M@CLLBGJH@?$AAn?$AAl?$AA?9?$AAB?$AAE?$AA?$AA@ 0000000180020688     libappcrt:lcidtoname_downlevel.obj
 0002:00005698       ??_C@_1M@BODBOGLF@?$AAn?$AAn?$AA?9?$AAN?$AAO?$AA?$AA@ 0000000180020698     libappcrt:lcidtoname_downlevel.obj
 0002:000056a8       ??_C@_1M@HFFAHKAD@?$AAp?$AAt?$AA?9?$AAP?$AAT?$AA?$AA@ 00000001800206a8     libappcrt:lcidtoname_downlevel.obj
 0002:000056b8       ??_C@_1BG@LNOAKHIE@?$AAs?$AAr?$AA?9?$AAS?$AAP?$AA?9?$AAL?$AAa?$AAt?$AAn?$AA?$AA@ 00000001800206b8     libappcrt:lcidtoname_downlevel.obj
 0002:000056d0       ??_C@_1M@HBMHBGAK@?$AAs?$AAv?$AA?9?$AAF?$AAI?$AA?$AA@ 00000001800206d0     libappcrt:lcidtoname_downlevel.obj
 0002:000056e0       ??_C@_1BG@DGCJGJBE@?$AAa?$AAz?$AA?9?$AAA?$AAZ?$AA?9?$AAC?$AAy?$AAr?$AAl?$AA?$AA@ 00000001800206e0     libappcrt:lcidtoname_downlevel.obj
 0002:000056f8       ??_C@_1M@KEJDAAHB@?$AAs?$AAe?$AA?9?$AAS?$AAE?$AA?$AA@ 00000001800206f8     libappcrt:lcidtoname_downlevel.obj
 0002:00005708       ??_C@_1M@HEIBJJAD@?$AAm?$AAs?$AA?9?$AAB?$AAN?$AA?$AA@ 0000000180020708     libappcrt:lcidtoname_downlevel.obj
 0002:00005718       ??_C@_1BG@PBGJMCEM@?$AAu?$AAz?$AA?9?$AAU?$AAZ?$AA?9?$AAC?$AAy?$AAr?$AAl?$AA?$AA@ 0000000180020718     libappcrt:lcidtoname_downlevel.obj
 0002:00005730       ??_C@_1O@LAOBCMDF@?$AAq?$AAu?$AAz?$AA?9?$AAE?$AAC?$AA?$AA@ 0000000180020730     libappcrt:lcidtoname_downlevel.obj
 0002:00005740       ??_C@_1M@POEEMAIO@?$AAa?$AAr?$AA?9?$AAE?$AAG?$AA?$AA@ 0000000180020740     libappcrt:lcidtoname_downlevel.obj
 0002:00005750       ??_C@_1M@EFAKDEDL@?$AAz?$AAh?$AA?9?$AAH?$AAK?$AA?$AA@ 0000000180020750     libappcrt:lcidtoname_downlevel.obj
 0002:00005760       ??_C@_1M@HKKIJHGI@?$AAd?$AAe?$AA?9?$AAA?$AAT?$AA?$AA@ 0000000180020760     libappcrt:lcidtoname_downlevel.obj
 0002:00005770       ??_C@_1M@KBFBEHJF@?$AAe?$AAn?$AA?9?$AAA?$AAU?$AA?$AA@ 0000000180020770     libappcrt:lcidtoname_downlevel.obj
 0002:00005780       ??_C@_1M@MNPLFAAH@?$AAe?$AAs?$AA?9?$AAE?$AAS?$AA?$AA@ 0000000180020780     libappcrt:lcidtoname_downlevel.obj
 0002:00005790       ??_C@_1M@HJOOJFMA@?$AAf?$AAr?$AA?9?$AAC?$AAA?$AA?$AA@ 0000000180020790     libappcrt:lcidtoname_downlevel.obj
 0002:000057a0       ??_C@_1BG@JPOFPNAB@?$AAs?$AAr?$AA?9?$AAS?$AAP?$AA?9?$AAC?$AAy?$AAr?$AAl?$AA?$AA@ 00000001800207a0     libappcrt:lcidtoname_downlevel.obj
 0002:000057b8       ??_C@_1M@LNFOCMOB@?$AAs?$AAe?$AA?9?$AAF?$AAI?$AA?$AA@ 00000001800207b8     libappcrt:lcidtoname_downlevel.obj
 0002:000057c8       ??_C@_1O@MGJBOAMB@?$AAq?$AAu?$AAz?$AA?9?$AAP?$AAE?$AA?$AA@ 00000001800207c8     libappcrt:lcidtoname_downlevel.obj
 0002:000057d8       ??_C@_1M@GJINLBOK@?$AAa?$AAr?$AA?9?$AAL?$AAY?$AA?$AA@ 00000001800207d8     libappcrt:lcidtoname_downlevel.obj
 0002:000057e8       ??_C@_1M@GGMNHJNL@?$AAz?$AAh?$AA?9?$AAS?$AAG?$AA?$AA@ 00000001800207e8     libappcrt:lcidtoname_downlevel.obj
 0002:000057f8       ??_C@_1M@HOIKODND@?$AAd?$AAe?$AA?9?$AAL?$AAU?$AA?$AA@ 00000001800207f8     libappcrt:lcidtoname_downlevel.obj
 0002:00005808       ??_C@_1M@DDOCCGFG@?$AAe?$AAn?$AA?9?$AAC?$AAA?$AA?$AA@ 0000000180020808     libappcrt:lcidtoname_downlevel.obj
 0002:00005818       ??_C@_1M@BNOEMJLF@?$AAe?$AAs?$AA?9?$AAG?$AAT?$AA?$AA@ 0000000180020818     libappcrt:lcidtoname_downlevel.obj
 0002:00005828       ??_C@_1M@EOGNKEK@?$AAf?$AAr?$AA?9?$AAC?$AAH?$AA?$AA@ 0000000180020828     libappcrt:lcidtoname_downlevel.obj
 0002:00005838       ??_C@_1M@FLIDJFHL@?$AAh?$AAr?$AA?9?$AAB?$AAA?$AA?$AA@ 0000000180020838     libappcrt:lcidtoname_downlevel.obj
 0002:00005848       ??_C@_1O@FMCELNAJ@?$AAs?$AAm?$AAj?$AA?9?$AAN?$AAO?$AA?$AA@ 0000000180020848     libappcrt:lcidtoname_downlevel.obj
 0002:00005858       ??_C@_1M@JHGLJMGJ@?$AAa?$AAr?$AA?9?$AAD?$AAZ?$AA?$AA@ 0000000180020858     libappcrt:lcidtoname_downlevel.obj
 0002:00005868       ??_C@_1M@JKKFDCNP@?$AAz?$AAh?$AA?9?$AAM?$AAO?$AA?$AA@ 0000000180020868     libappcrt:lcidtoname_downlevel.obj
 0002:00005878       ??_C@_1M@GEEFALPE@?$AAd?$AAe?$AA?9?$AAL?$AAI?$AA?$AA@ 0000000180020878     libappcrt:lcidtoname_downlevel.obj
 0002:00005888       ??_C@_1M@IGEOFBG@?$AAe?$AAn?$AA?9?$AAN?$AAZ?$AA?$AA@ 0000000180020888     libappcrt:lcidtoname_downlevel.obj
 0002:00005898       ??_C@_1M@KDBONEHP@?$AAe?$AAs?$AA?9?$AAC?$AAR?$AA?$AA@ 0000000180020898     libappcrt:lcidtoname_downlevel.obj
 0002:000058a8       ??_C@_1M@FHMDOHNN@?$AAf?$AAr?$AA?9?$AAL?$AAU?$AA?$AA@ 00000001800208a8     libappcrt:lcidtoname_downlevel.obj
 0002:000058b8       ??_C@_1BG@NFKKMAFG@?$AAb?$AAs?$AA?9?$AAB?$AAA?$AA?9?$AAL?$AAa?$AAt?$AAn?$AA?$AA@ 00000001800208b8     libappcrt:lcidtoname_downlevel.obj
 0002:000058d0       ??_C@_1O@IMNBEMCI@?$AAs?$AAm?$AAj?$AA?9?$AAS?$AAE?$AA?$AA@ 00000001800208d0     libappcrt:lcidtoname_downlevel.obj
 0002:000058e0       ??_C@_1M@DHHMBNDP@?$AAa?$AAr?$AA?9?$AAM?$AAA?$AA?$AA@ 00000001800208e0     libappcrt:lcidtoname_downlevel.obj
 0002:000058f0       ??_C@_1M@BNBLJCGH@?$AAe?$AAn?$AA?9?$AAI?$AAE?$AA?$AA@ 00000001800208f0     libappcrt:lcidtoname_downlevel.obj
 0002:00005900       ??_C@_1M@GEPAFMDL@?$AAe?$AAs?$AA?9?$AAP?$AAA?$AA?$AA@ 0000000180020900     libappcrt:lcidtoname_downlevel.obj
 0002:00005910       ??_C@_1M@OJONDMDL@?$AAf?$AAr?$AA?9?$AAM?$AAC?$AA?$AA@ 0000000180020910     libappcrt:lcidtoname_downlevel.obj
 0002:00005920       ??_C@_1BG@OBCNFJB@?$AAs?$AAr?$AA?9?$AAB?$AAA?$AA?9?$AAL?$AAa?$AAt?$AAn?$AA?$AA@ 0000000180020920     libappcrt:lcidtoname_downlevel.obj
 0002:00005938       ??_C@_1O@KEMEEGPO@?$AAs?$AAm?$AAa?$AA?9?$AAN?$AAO?$AA?$AA@ 0000000180020938     libappcrt:lcidtoname_downlevel.obj
 0002:00005948       ??_C@_1M@ELMGFODK@?$AAa?$AAr?$AA?9?$AAT?$AAN?$AA?$AA@ 0000000180020948     libappcrt:lcidtoname_downlevel.obj
 0002:00005958       ??_C@_1M@BHDLHFAF@?$AAe?$AAn?$AA?9?$AAZ?$AAA?$AA?$AA@ 0000000180020958     libappcrt:lcidtoname_downlevel.obj
 0002:00005968       ??_C@_1M@BMGIGLIF@?$AAe?$AAs?$AA?9?$AAD?$AAO?$AA?$AA@ 0000000180020968     libappcrt:lcidtoname_downlevel.obj
 0002:00005978       ??_C@_1BG@CMBHIPBE@?$AAs?$AAr?$AA?9?$AAB?$AAA?$AA?9?$AAC?$AAy?$AAr?$AAl?$AA?$AA@ 0000000180020978     libappcrt:lcidtoname_downlevel.obj
 0002:00005990       ??_C@_1O@HEDBLHNP@?$AAs?$AAm?$AAa?$AA?9?$AAS?$AAE?$AA?$AA@ 0000000180020990     libappcrt:lcidtoname_downlevel.obj
 0002:000059a0       ??_C@_1M@DAGCADIM@?$AAa?$AAr?$AA?9?$AAO?$AAM?$AA?$AA@ 00000001800209a0     libappcrt:lcidtoname_downlevel.obj
 0002:000059b0       ??_C@_1M@FODLMICG@?$AAe?$AAn?$AA?9?$AAJ?$AAM?$AA?$AA@ 00000001800209b0     libappcrt:lcidtoname_downlevel.obj
 0002:000059c0       ??_C@_1M@DNMLCIHB@?$AAe?$AAs?$AA?9?$AAV?$AAE?$AA?$AA@ 00000001800209c0     libappcrt:lcidtoname_downlevel.obj
 0002:000059d0       ??_C@_1O@EOKHMKJK@?$AAs?$AAm?$AAs?$AA?9?$AAF?$AAI?$AA?$AA@ 00000001800209d0     libappcrt:lcidtoname_downlevel.obj
 0002:000059e0       ??_C@_1M@CAFJMKOF@?$AAa?$AAr?$AA?9?$AAY?$AAE?$AA?$AA@ 00000001800209e0     libappcrt:lcidtoname_downlevel.obj
 0002:000059f0       ??_C@_1M@CBFHIJLI@?$AAe?$AAn?$AA?9?$AAC?$AAB?$AA?$AA@ 00000001800209f0     libappcrt:lcidtoname_downlevel.obj
 0002:00005a00       ??_C@_1M@BGNFLDN@?$AAe?$AAs?$AA?9?$AAC?$AAO?$AA?$AA@ 0000000180020a00     libappcrt:lcidtoname_downlevel.obj
 0002:00005a10       ??_C@_1O@JMPHMAMC@?$AAs?$AAm?$AAn?$AA?9?$AAF?$AAI?$AA?$AA@ 0000000180020a10     libappcrt:lcidtoname_downlevel.obj
 0002:00005a20       ??_C@_1M@JLANABKE@?$AAa?$AAr?$AA?9?$AAS?$AAY?$AA?$AA@ 0000000180020a20     libappcrt:lcidtoname_downlevel.obj
 0002:00005a30       ??_C@_1M@HPKGCFGN@?$AAe?$AAn?$AA?9?$AAB?$AAZ?$AA?$AA@ 0000000180020a30     libappcrt:lcidtoname_downlevel.obj
 0002:00005a40       ??_C@_1M@OLJCMLGM@?$AAe?$AAs?$AA?9?$AAP?$AAE?$AA?$AA@ 0000000180020a40     libappcrt:lcidtoname_downlevel.obj
 0002:00005a50       ??_C@_1M@MKKGFKLE@?$AAa?$AAr?$AA?9?$AAJ?$AAO?$AA?$AA@ 0000000180020a50     libappcrt:lcidtoname_downlevel.obj
 0002:00005a60       ??_C@_1M@EKPGLDNI@?$AAe?$AAn?$AA?9?$AAT?$AAT?$AA?$AA@ 0000000180020a60     libappcrt:lcidtoname_downlevel.obj
 0002:00005a70       ??_C@_1M@OONGHFHE@?$AAe?$AAs?$AA?9?$AAA?$AAR?$AA?$AA@ 0000000180020a70     libappcrt:lcidtoname_downlevel.obj
 0002:00005a80       ??_C@_1M@OOJFGBHE@?$AAa?$AAr?$AA?9?$AAL?$AAB?$AA?$AA@ 0000000180020a80     libappcrt:lcidtoname_downlevel.obj
 0002:00005a90       ??_C@_1M@GCEJHNEG@?$AAe?$AAn?$AA?9?$AAZ?$AAW?$AA?$AA@ 0000000180020a90     libappcrt:lcidtoname_downlevel.obj
 0002:00005aa0       ??_C@_1M@JNOCAHJI@?$AAe?$AAs?$AA?9?$AAE?$AAC?$AA?$AA@ 0000000180020aa0     libappcrt:lcidtoname_downlevel.obj
 0002:00005ab0       ??_C@_1M@JEFHPGGB@?$AAa?$AAr?$AA?9?$AAK?$AAW?$AA?$AA@ 0000000180020ab0     libappcrt:lcidtoname_downlevel.obj
 0002:00005ac0       ??_C@_1M@MLKIBJOJ@?$AAe?$AAn?$AA?9?$AAP?$AAH?$AA?$AA@ 0000000180020ac0     libappcrt:lcidtoname_downlevel.obj
 0002:00005ad0       ??_C@_1M@BDNIPEND@?$AAe?$AAs?$AA?9?$AAC?$AAL?$AA?$AA@ 0000000180020ad0     libappcrt:lcidtoname_downlevel.obj
 0002:00005ae0       ??_C@_1M@MPNMEKBD@?$AAa?$AAr?$AA?9?$AAA?$AAE?$AA?$AA@ 0000000180020ae0     libappcrt:lcidtoname_downlevel.obj
 0002:00005af0       ??_C@_1M@KBJALCPI@?$AAe?$AAs?$AA?9?$AAU?$AAY?$AA?$AA@ 0000000180020af0     libappcrt:lcidtoname_downlevel.obj
 0002:00005b00       ??_C@_1M@LLCCOAGA@?$AAa?$AAr?$AA?9?$AAB?$AAH?$AA?$AA@ 0000000180020b00     libappcrt:lcidtoname_downlevel.obj
 0002:00005b10       ??_C@_1M@PBFNCDEL@?$AAe?$AAs?$AA?9?$AAP?$AAY?$AA?$AA@ 0000000180020b10     libappcrt:lcidtoname_downlevel.obj
 0002:00005b20       __newctype                 0000000180020b20     libappcrt:ctype.obj
 0002:00005e20       __newclmap                 0000000180020e20     libappcrt:ctype.obj
 0002:00005fa0       __newcumap                 0000000180020fa0     libappcrt:ctype.obj
 0002:00006120       _wctype                    0000000180021120     libappcrt:ctype.obj
 0002:00006330       __acrt_rg_language         0000000180021330     libappcrt:get_qualified_locale.obj
 0002:00006740       __acrt_rg_language_count   0000000180021740     libappcrt:get_qualified_locale.obj
 0002:00006748       __acrt_rg_country_count    0000000180021748     libappcrt:get_qualified_locale.obj
 0002:00006750       __acrt_rg_country          0000000180021750     libappcrt:get_qualified_locale.obj
 0002:000068c0       ??_C@_1BC@LLOKLNP@?$AAa?$AAm?$AAe?$AAr?$AAi?$AAc?$AAa?$AAn?$AA?$AA@ 00000001800218c0     libappcrt:get_qualified_locale.obj
 0002:000068d8       ??_C@_1CC@HEIGCDGG@?$AAa?$AAm?$AAe?$AAr?$AAi?$AAc?$AAa?$AAn?$AA?5?$AAe?$AAn?$AAg?$AAl?$AAi?$AAs?$AAh?$AA?$AA@ 00000001800218d8     libappcrt:get_qualified_locale.obj
 0002:00006900       ??_C@_1CC@IHCNOMIN@?$AAa?$AAm?$AAe?$AAr?$AAi?$AAc?$AAa?$AAn?$AA?9?$AAe?$AAn?$AAg?$AAl?$AAi?$AAs?$AAh?$AA?$AA@ 0000000180021900     libappcrt:get_qualified_locale.obj
 0002:00006928       ??_C@_1BG@GKAGPCGG@?$AAa?$AAu?$AAs?$AAt?$AAr?$AAa?$AAl?$AAi?$AAa?$AAn?$AA?$AA@ 0000000180021928     libappcrt:get_qualified_locale.obj
 0002:00006940       ??_C@_1BA@GMENCENF@?$AAb?$AAe?$AAl?$AAg?$AAi?$AAa?$AAn?$AA?$AA@ 0000000180021940     libappcrt:get_qualified_locale.obj
 0002:00006950       ??_C@_1BC@PJMIIAAN@?$AAc?$AAa?$AAn?$AAa?$AAd?$AAi?$AAa?$AAn?$AA?$AA@ 0000000180021950     libappcrt:get_qualified_locale.obj
 0002:00006968       ??_C@_17NOIMNFBF@?$AAc?$AAh?$AAh?$AA?$AA@ 0000000180021968     libappcrt:get_qualified_locale.obj
 0002:00006970       ??_C@_17GGDALCHA@?$AAc?$AAh?$AAi?$AA?$AA@ 0000000180021970     libappcrt:get_qualified_locale.obj
 0002:00006978       ??_C@_1BA@NPNJKIBL@?$AAc?$AAh?$AAi?$AAn?$AAe?$AAs?$AAe?$AA?$AA@ 0000000180021978     libappcrt:get_qualified_locale.obj
 0002:00006988       ??_C@_1CC@DINBAMMJ@?$AAc?$AAh?$AAi?$AAn?$AAe?$AAs?$AAe?$AA?9?$AAh?$AAo?$AAn?$AAg?$AAk?$AAo?$AAn?$AAg?$AA?$AA@ 0000000180021988     libappcrt:get_qualified_locale.obj
 0002:000069b0       ??_C@_1CG@IOBJPACO@?$AAc?$AAh?$AAi?$AAn?$AAe?$AAs?$AAe?$AA?9?$AAs?$AAi?$AAm?$AAp?$AAl?$AAi?$AAf?$AAi?$AAe?$AAd?$AA?$AA@ 00000001800219b0     libappcrt:get_qualified_locale.obj
 0002:000069d8       ??_C@_1CE@GAJNDCKG@?$AAc?$AAh?$AAi?$AAn?$AAe?$AAs?$AAe?$AA?9?$AAs?$AAi?$AAn?$AAg?$AAa?$AAp?$AAo?$AAr?$AAe?$AA?$AA@ 00000001800219d8     libappcrt:get_qualified_locale.obj
 0002:00006a00       ??_C@_1CI@PAJPIOOD@?$AAc?$AAh?$AAi?$AAn?$AAe?$AAs?$AAe?$AA?9?$AAt?$AAr?$AAa?$AAd?$AAi?$AAt?$AAi?$AAo?$AAn?$AAa?$AAl?$AA?$AA@ 0000000180021a00     libappcrt:get_qualified_locale.obj
 0002:00006a28       ??_C@_1BM@NILJBMMD@?$AAd?$AAu?$AAt?$AAc?$AAh?$AA?9?$AAb?$AAe?$AAl?$AAg?$AAi?$AAa?$AAn?$AA?$AA@ 0000000180021a28     libappcrt:get_qualified_locale.obj
 0002:00006a48       ??_C@_1CC@OOJPJNEJ@?$AAe?$AAn?$AAg?$AAl?$AAi?$AAs?$AAh?$AA?9?$AAa?$AAm?$AAe?$AAr?$AAi?$AAc?$AAa?$AAn?$AA?$AA@ 0000000180021a48     libappcrt:get_qualified_locale.obj
 0002:00006a70       ??_C@_1BI@IOLFEEM@?$AAe?$AAn?$AAg?$AAl?$AAi?$AAs?$AAh?$AA?9?$AAa?$AAu?$AAs?$AA?$AA@ 0000000180021a70     libappcrt:get_qualified_locale.obj
 0002:00006a88       ??_C@_1BO@HFFNLENJ@?$AAe?$AAn?$AAg?$AAl?$AAi?$AAs?$AAh?$AA?9?$AAb?$AAe?$AAl?$AAi?$AAz?$AAe?$AA?$AA@ 0000000180021a88     libappcrt:get_qualified_locale.obj
 0002:00006aa8       ??_C@_1BI@HAPKJMPO@?$AAe?$AAn?$AAg?$AAl?$AAi?$AAs?$AAh?$AA?9?$AAc?$AAa?$AAn?$AA?$AA@ 0000000180021aa8     libappcrt:get_qualified_locale.obj
 0002:00006ac0       ??_C@_1CE@HLNDMIOJ@?$AAe?$AAn?$AAg?$AAl?$AAi?$AAs?$AAh?$AA?9?$AAc?$AAa?$AAr?$AAi?$AAb?$AAb?$AAe?$AAa?$AAn?$AA?$AA@ 0000000180021ac0     libappcrt:get_qualified_locale.obj
 0002:00006ae8       ??_C@_1BI@LDHJHHAC@?$AAe?$AAn?$AAg?$AAl?$AAi?$AAs?$AAh?$AA?9?$AAi?$AAr?$AAe?$AA?$AA@ 0000000180021ae8     libappcrt:get_qualified_locale.obj
 0002:00006b00       ??_C@_1CA@NJMMCFOC@?$AAe?$AAn?$AAg?$AAl?$AAi?$AAs?$AAh?$AA?9?$AAj?$AAa?$AAm?$AAa?$AAi?$AAc?$AAa?$AA?$AA@ 0000000180021b00     libappcrt:get_qualified_locale.obj
 0002:00006b20       ??_C@_1BG@BHJEBBGG@?$AAe?$AAn?$AAg?$AAl?$AAi?$AAs?$AAh?$AA?9?$AAn?$AAz?$AA?$AA@ 0000000180021b20     libappcrt:get_qualified_locale.obj
 0002:00006b38       ??_C@_1CK@FGOEJJCO@?$AAe?$AAn?$AAg?$AAl?$AAi?$AAs?$AAh?$AA?9?$AAs?$AAo?$AAu?$AAt?$AAh?$AA?5?$AAa?$AAf?$AAr?$AAi?$AAc?$AAa?$AA?$AA@ 0000000180021b38     libappcrt:get_qualified_locale.obj
 0002:00006b68       ??_C@_1DE@PDBJPCJ@?$AAe?$AAn?$AAg?$AAl?$AAi?$AAs?$AAh?$AA?9?$AAt?$AAr?$AAi?$AAn?$AAi?$AAd?$AAa?$AAd?$AA?5?$AAy?$AA?5?$AAt?$AAo?$AAb?$AAa?$AAg?$AAo?$AA?$AA@ 0000000180021b68     libappcrt:get_qualified_locale.obj
 0002:00006ba0       ??_C@_1BG@JGCANDME@?$AAe?$AAn?$AAg?$AAl?$AAi?$AAs?$AAh?$AA?9?$AAu?$AAk?$AA?$AA@ 0000000180021ba0     libappcrt:get_qualified_locale.obj
 0002:00006bb8       ??_C@_1BG@DINKMLE@?$AAe?$AAn?$AAg?$AAl?$AAi?$AAs?$AAh?$AA?9?$AAu?$AAs?$AA?$AA@ 0000000180021bb8     libappcrt:get_qualified_locale.obj
 0002:00006bd0       ??_C@_1BI@NMFDBHJE@?$AAe?$AAn?$AAg?$AAl?$AAi?$AAs?$AAh?$AA?9?$AAu?$AAs?$AAa?$AA?$AA@ 0000000180021bd0     libappcrt:get_qualified_locale.obj
 0002:00006be8       ??_C@_1BO@OIHKJKII@?$AAf?$AAr?$AAe?$AAn?$AAc?$AAh?$AA?9?$AAb?$AAe?$AAl?$AAg?$AAi?$AAa?$AAn?$AA?$AA@ 0000000180021be8     libappcrt:get_qualified_locale.obj
 0002:00006c08       ??_C@_1CA@NKAELJKI@?$AAf?$AAr?$AAe?$AAn?$AAc?$AAh?$AA?9?$AAc?$AAa?$AAn?$AAa?$AAd?$AAi?$AAa?$AAn?$AA?$AA@ 0000000180021c08     libappcrt:get_qualified_locale.obj
 0002:00006c28       ??_C@_1CE@MGKCNLGN@?$AAf?$AAr?$AAe?$AAn?$AAc?$AAh?$AA?9?$AAl?$AAu?$AAx?$AAe?$AAm?$AAb?$AAo?$AAu?$AAr?$AAg?$AA?$AA@ 0000000180021c28     libappcrt:get_qualified_locale.obj
 0002:00006c50       ??_C@_1BK@CEGEAILM@?$AAf?$AAr?$AAe?$AAn?$AAc?$AAh?$AA?9?$AAs?$AAw?$AAi?$AAs?$AAs?$AA?$AA@ 0000000180021c50     libappcrt:get_qualified_locale.obj
 0002:00006c70       ??_C@_1CA@PAFKEOCC@?$AAg?$AAe?$AAr?$AAm?$AAa?$AAn?$AA?9?$AAa?$AAu?$AAs?$AAt?$AAr?$AAi?$AAa?$AAn?$AA?$AA@ 0000000180021c70     libappcrt:get_qualified_locale.obj
 0002:00006c90       ??_C@_1CI@HCFHGOFD@?$AAg?$AAe?$AAr?$AAm?$AAa?$AAn?$AA?9?$AAl?$AAi?$AAc?$AAh?$AAt?$AAe?$AAn?$AAs?$AAt?$AAe?$AAi?$AAn?$AA?$AA@ 0000000180021c90     libappcrt:get_qualified_locale.obj
 0002:00006cb8       ??_C@_1CE@FEDDNPDG@?$AAg?$AAe?$AAr?$AAm?$AAa?$AAn?$AA?9?$AAl?$AAu?$AAx?$AAe?$AAm?$AAb?$AAo?$AAu?$AAr?$AAg?$AA?$AA@ 0000000180021cb8     libappcrt:get_qualified_locale.obj
 0002:00006ce0       ??_C@_1BK@LIMINNMN@?$AAg?$AAe?$AAr?$AAm?$AAa?$AAn?$AA?9?$AAs?$AAw?$AAi?$AAs?$AAs?$AA?$AA@ 0000000180021ce0     libappcrt:get_qualified_locale.obj
 0002:00006d00       ??_C@_1BM@LGMDBEPD@?$AAi?$AAr?$AAi?$AAs?$AAh?$AA?9?$AAe?$AAn?$AAg?$AAl?$AAi?$AAs?$AAh?$AA?$AA@ 0000000180021d00     libappcrt:get_qualified_locale.obj
 0002:00006d20       ??_C@_1BM@NNCFBAEE@?$AAi?$AAt?$AAa?$AAl?$AAi?$AAa?$AAn?$AA?9?$AAs?$AAw?$AAi?$AAs?$AAs?$AA?$AA@ 0000000180021d20     libappcrt:get_qualified_locale.obj
 0002:00006d40       ??_C@_1BE@FEDJNPIB@?$AAn?$AAo?$AAr?$AAw?$AAe?$AAg?$AAi?$AAa?$AAn?$AA?$AA@ 0000000180021d40     libappcrt:get_qualified_locale.obj
 0002:00006d58       ??_C@_1CC@CILKDEIE@?$AAn?$AAo?$AAr?$AAw?$AAe?$AAg?$AAi?$AAa?$AAn?$AA?9?$AAb?$AAo?$AAk?$AAm?$AAa?$AAl?$AA?$AA@ 0000000180021d58     libappcrt:get_qualified_locale.obj
 0002:00006d80       ??_C@_1CE@DHMMHEPL@?$AAn?$AAo?$AAr?$AAw?$AAe?$AAg?$AAi?$AAa?$AAn?$AA?9?$AAn?$AAy?$AAn?$AAo?$AAr?$AAs?$AAk?$AA?$AA@ 0000000180021d80     libappcrt:get_qualified_locale.obj
 0002:00006da8       ??_C@_1CK@OPNMHECD@?$AAp?$AAo?$AAr?$AAt?$AAu?$AAg?$AAu?$AAe?$AAs?$AAe?$AA?9?$AAb?$AAr?$AAa?$AAz?$AAi?$AAl?$AAi?$AAa?$AAn?$AA?$AA@ 0000000180021da8     libappcrt:get_qualified_locale.obj
 0002:00006dd8       ??_C@_1CE@KEEHCDB@?$AAs?$AAp?$AAa?$AAn?$AAi?$AAs?$AAh?$AA?9?$AAa?$AAr?$AAg?$AAe?$AAn?$AAt?$AAi?$AAn?$AAa?$AA?$AA@ 0000000180021dd8     libappcrt:get_qualified_locale.obj
 0002:00006e00       ??_C@_1CA@GIAOLHJD@?$AAs?$AAp?$AAa?$AAn?$AAi?$AAs?$AAh?$AA?9?$AAb?$AAo?$AAl?$AAi?$AAv?$AAi?$AAa?$AA?$AA@ 0000000180021e00     libappcrt:get_qualified_locale.obj
 0002:00006e20       ??_C@_1BM@OJNDFNPD@?$AAs?$AAp?$AAa?$AAn?$AAi?$AAs?$AAh?$AA?9?$AAc?$AAh?$AAi?$AAl?$AAe?$AA?$AA@ 0000000180021e20     libappcrt:get_qualified_locale.obj
 0002:00006e40       ??_C@_1CC@OCOLPALL@?$AAs?$AAp?$AAa?$AAn?$AAi?$AAs?$AAh?$AA?9?$AAc?$AAo?$AAl?$AAo?$AAm?$AAb?$AAi?$AAa?$AA?$AA@ 0000000180021e40     libappcrt:get_qualified_locale.obj
 0002:00006e68       ??_C@_1CG@BPOFMKBB@?$AAs?$AAp?$AAa?$AAn?$AAi?$AAs?$AAh?$AA?9?$AAc?$AAo?$AAs?$AAt?$AAa?$AA?5?$AAr?$AAi?$AAc?$AAa?$AA?$AA@ 0000000180021e68     libappcrt:get_qualified_locale.obj
 0002:00006e90       ??_C@_1DG@IGOBAPBB@?$AAs?$AAp?$AAa?$AAn?$AAi?$AAs?$AAh?$AA?9?$AAd?$AAo?$AAm?$AAi?$AAn?$AAi?$AAc?$AAa?$AAn?$AA?5?$AAr?$AAe?$AAp?$AAu?$AAb?$AAl?$AAi?$AAc?$AA?$AA@ 0000000180021e90     libappcrt:get_qualified_locale.obj
 0002:00006ec8       ??_C@_1CA@JHAPGEGI@?$AAs?$AAp?$AAa?$AAn?$AAi?$AAs?$AAh?$AA?9?$AAe?$AAc?$AAu?$AAa?$AAd?$AAo?$AAr?$AA?$AA@ 0000000180021ec8     libappcrt:get_qualified_locale.obj
 0002:00006ee8       ??_C@_1CI@LAPALJPP@?$AAs?$AAp?$AAa?$AAn?$AAi?$AAs?$AAh?$AA?9?$AAe?$AAl?$AA?5?$AAs?$AAa?$AAl?$AAv?$AAa?$AAd?$AAo?$AAr?$AA?$AA@ 0000000180021ee8     libappcrt:get_qualified_locale.obj
 0002:00006f10       ??_C@_1CE@PDGBOFOM@?$AAs?$AAp?$AAa?$AAn?$AAi?$AAs?$AAh?$AA?9?$AAg?$AAu?$AAa?$AAt?$AAe?$AAm?$AAa?$AAl?$AAa?$AA?$AA@ 0000000180021f10     libappcrt:get_qualified_locale.obj
 0002:00006f38       ??_C@_1CC@NBEBAODI@?$AAs?$AAp?$AAa?$AAn?$AAi?$AAs?$AAh?$AA?9?$AAh?$AAo?$AAn?$AAd?$AAu?$AAr?$AAa?$AAs?$AA?$AA@ 0000000180021f38     libappcrt:get_qualified_locale.obj
 0002:00006f60       ??_C@_1CA@LLKGHBMF@?$AAs?$AAp?$AAa?$AAn?$AAi?$AAs?$AAh?$AA?9?$AAm?$AAe?$AAx?$AAi?$AAc?$AAa?$AAn?$AA?$AA@ 0000000180021f60     libappcrt:get_qualified_locale.obj
 0002:00006f80       ??_C@_1BO@LKNDOIGD@?$AAs?$AAp?$AAa?$AAn?$AAi?$AAs?$AAh?$AA?9?$AAm?$AAo?$AAd?$AAe?$AAr?$AAn?$AA?$AA@ 0000000180021f80     libappcrt:get_qualified_locale.obj
 0002:00006fa0       ??_C@_1CE@NMDMOEEB@?$AAs?$AAp?$AAa?$AAn?$AAi?$AAs?$AAh?$AA?9?$AAn?$AAi?$AAc?$AAa?$AAr?$AAa?$AAg?$AAu?$AAa?$AA?$AA@ 0000000180021fa0     libappcrt:get_qualified_locale.obj
 0002:00006fc8       ??_C@_1BO@LLCBEJGB@?$AAs?$AAp?$AAa?$AAn?$AAi?$AAs?$AAh?$AA?9?$AAp?$AAa?$AAn?$AAa?$AAm?$AAa?$AA?$AA@ 0000000180021fc8     libappcrt:get_qualified_locale.obj
 0002:00006fe8       ??_C@_1CC@FKPGGIHO@?$AAs?$AAp?$AAa?$AAn?$AAi?$AAs?$AAh?$AA?9?$AAp?$AAa?$AAr?$AAa?$AAg?$AAu?$AAa?$AAy?$AA?$AA@ 0000000180021fe8     libappcrt:get_qualified_locale.obj
 0002:00007010       ??_C@_1BK@CDEIHOOP@?$AAs?$AAp?$AAa?$AAn?$AAi?$AAs?$AAh?$AA?9?$AAp?$AAe?$AAr?$AAu?$AA?$AA@ 0000000180022010     libappcrt:get_qualified_locale.obj
 0002:00007030       ??_C@_1CI@GAHAKKGP@?$AAs?$AAp?$AAa?$AAn?$AAi?$AAs?$AAh?$AA?9?$AAp?$AAu?$AAe?$AAr?$AAt?$AAo?$AA?5?$AAr?$AAi?$AAc?$AAo?$AA?$AA@ 0000000180022030     libappcrt:get_qualified_locale.obj
 0002:00007058       ??_C@_1CA@NKJBCAGP@?$AAs?$AAp?$AAa?$AAn?$AAi?$AAs?$AAh?$AA?9?$AAu?$AAr?$AAu?$AAg?$AAu?$AAa?$AAy?$AA?$AA@ 0000000180022058     libappcrt:get_qualified_locale.obj
 0002:00007078       ??_C@_1CE@ODILCONM@?$AAs?$AAp?$AAa?$AAn?$AAi?$AAs?$AAh?$AA?9?$AAv?$AAe?$AAn?$AAe?$AAz?$AAu?$AAe?$AAl?$AAa?$AA?$AA@ 0000000180022078     libappcrt:get_qualified_locale.obj
 0002:000070a0       ??_C@_1CA@OBNMCGFO@?$AAs?$AAw?$AAe?$AAd?$AAi?$AAs?$AAh?$AA?9?$AAf?$AAi?$AAn?$AAl?$AAa?$AAn?$AAd?$AA?$AA@ 00000001800220a0     libappcrt:get_qualified_locale.obj
 0002:000070c0       ??_C@_1M@PIPDDPPI@?$AAs?$AAw?$AAi?$AAs?$AAs?$AA?$AA@ 00000001800220c0     libappcrt:get_qualified_locale.obj
 0002:000070cc       ??_C@_15GMFIMNFM@?$AAu?$AAs?$AA?$AA@ 00000001800220cc     libappcrt:get_qualified_locale.obj
 0002:000070d8       ??_C@_17HAEBFAGL@?$AAu?$AAs?$AAa?$AA?$AA@ 00000001800220d8     libappcrt:get_qualified_locale.obj
 0002:000070e0       ??_C@_1BA@DPFJEPHB@?$AAa?$AAm?$AAe?$AAr?$AAi?$AAc?$AAa?$AA?$AA@ 00000001800220e0     libappcrt:get_qualified_locale.obj
 0002:000070f0       ??_C@_1BA@ELOGGFK@?$AAb?$AAr?$AAi?$AAt?$AAa?$AAi?$AAn?$AA?$AA@ 00000001800220f0     libappcrt:get_qualified_locale.obj
 0002:00007100       ??_C@_1M@GHBGIGDA@?$AAc?$AAh?$AAi?$AAn?$AAa?$AA?$AA@ 0000000180022100     libappcrt:get_qualified_locale.obj
 0002:00007110       ??_C@_1M@NCHEJOPO@?$AAc?$AAz?$AAe?$AAc?$AAh?$AA?$AA@ 0000000180022110     libappcrt:get_qualified_locale.obj
 0002:00007120       ??_C@_1BA@BKPAPBLA@?$AAe?$AAn?$AAg?$AAl?$AAa?$AAn?$AAd?$AA?$AA@ 0000000180022120     libappcrt:get_qualified_locale.obj
 0002:00007130       ??_C@_1BM@HKBCKIPC@?$AAg?$AAr?$AAe?$AAa?$AAt?$AA?5?$AAb?$AAr?$AAi?$AAt?$AAa?$AAi?$AAn?$AA?$AA@ 0000000180022130     libappcrt:get_qualified_locale.obj
 0002:00007150       ??_C@_1BA@PPCHPGJB@?$AAh?$AAo?$AAl?$AAl?$AAa?$AAn?$AAd?$AA?$AA@ 0000000180022150     libappcrt:get_qualified_locale.obj
 0002:00007160       ??_C@_1BE@JBMPEGDG@?$AAh?$AAo?$AAn?$AAg?$AA?9?$AAk?$AAo?$AAn?$AAg?$AA?$AA@ 0000000180022160     libappcrt:get_qualified_locale.obj
 0002:00007178       ??_C@_1BI@KOELBBPJ@?$AAn?$AAe?$AAw?$AA?9?$AAz?$AAe?$AAa?$AAl?$AAa?$AAn?$AAd?$AA?$AA@ 0000000180022178     libappcrt:get_qualified_locale.obj
 0002:00007190       ??_C@_15HIEBHAIO@?$AAn?$AAz?$AA?$AA@ 0000000180022190     libappcrt:get_qualified_locale.obj
 0002:00007198       ??_C@_1BC@CHBCPFPI@?$AAp?$AAr?$AA?5?$AAc?$AAh?$AAi?$AAn?$AAa?$AA?$AA@ 0000000180022198     libappcrt:get_qualified_locale.obj
 0002:000071b0       ??_C@_1BC@JAOIIFKD@?$AAp?$AAr?$AA?9?$AAc?$AAh?$AAi?$AAn?$AAa?$AA?$AA@ 00000001800221b0     libappcrt:get_qualified_locale.obj
 0002:000071c8       ??_C@_1BI@BEHPPHKC@?$AAp?$AAu?$AAe?$AAr?$AAt?$AAo?$AA?9?$AAr?$AAi?$AAc?$AAo?$AA?$AA@ 00000001800221c8     libappcrt:get_qualified_locale.obj
 0002:000071e0       ??_C@_1O@PAEOFKDI@?$AAs?$AAl?$AAo?$AAv?$AAa?$AAk?$AA?$AA@ 00000001800221e0     libappcrt:get_qualified_locale.obj
 0002:000071f0       ??_C@_1BK@FIHMCKAM@?$AAs?$AAo?$AAu?$AAt?$AAh?$AA?5?$AAa?$AAf?$AAr?$AAi?$AAc?$AAa?$AA?$AA@ 00000001800221f0     libappcrt:get_qualified_locale.obj
 0002:00007210       ??_C@_1BI@NAEOODKB@?$AAs?$AAo?$AAu?$AAt?$AAh?$AA?5?$AAk?$AAo?$AAr?$AAe?$AAa?$AA?$AA@ 0000000180022210     libappcrt:get_qualified_locale.obj
 0002:00007228       ??_C@_1BK@FBDGGIFF@?$AAs?$AAo?$AAu?$AAt?$AAh?$AA?9?$AAa?$AAf?$AAr?$AAi?$AAc?$AAa?$AA?$AA@ 0000000180022228     libappcrt:get_qualified_locale.obj
 0002:00007248       ??_C@_1BI@GHLEJDPK@?$AAs?$AAo?$AAu?$AAt?$AAh?$AA?9?$AAk?$AAo?$AAr?$AAe?$AAa?$AA?$AA@ 0000000180022248     libappcrt:get_qualified_locale.obj
 0002:00007260       ??_C@_1CE@PLHLOMJF@?$AAt?$AAr?$AAi?$AAn?$AAi?$AAd?$AAa?$AAd?$AA?5?$AA?$CG?$AA?5?$AAt?$AAo?$AAb?$AAa?$AAg?$AAo?$AA?$AA@ 0000000180022260     libappcrt:get_qualified_locale.obj
 0002:00007288       ??_C@_1BO@MODIMHHI@?$AAu?$AAn?$AAi?$AAt?$AAe?$AAd?$AA?9?$AAk?$AAi?$AAn?$AAg?$AAd?$AAo?$AAm?$AA?$AA@ 0000000180022288     libappcrt:get_qualified_locale.obj
 0002:000072a8       ??_C@_1BM@FFHJONBJ@?$AAu?$AAn?$AAi?$AAt?$AAe?$AAd?$AA?9?$AAs?$AAt?$AAa?$AAt?$AAe?$AAs?$AA?$AA@ 00000001800222a8     libappcrt:get_qualified_locale.obj
 0002:000072d0       ?large_power_data@?1??multiply_by_power_of_ten@__crt_strtox@@YA_NAEAUbig_integer@2@I@Z@4QBIB 00000001800222d0     libappcrt:cfout.obj
 0002:00007be0       ?large_power_indices@?1??multiply_by_power_of_ten@__crt_strtox@@YA_NAEAUbig_integer@2@I@Z@4QBUunpack_index@?1??12@YA_N0I@Z@B 0000000180022be0     libappcrt:cfout.obj
 0002:00007c78       ?small_powers_of_ten@?6??multiply_by_power_of_ten@__crt_strtox@@YA_NAEAUbig_integer@2@I@Z@4QBIB 0000000180022c78     libappcrt:cfout.obj
 0002:00007c9c       ??_C@_01GBGANLPD@0?$AA@    0000000180022c9c     libappcrt:cfout.obj
 0002:00007ca0       ??_C@_05DNEBIAHO@1?$CDINF?$AA@ 0000000180022ca0     libappcrt:cfout.obj
 0002:00007ca8       ??_C@_06IMKFLFPG@1?$CDQNAN?$AA@ 0000000180022ca8     libappcrt:cfout.obj
 0002:00007cb0       ??_C@_06PGGFOGJG@1?$CDSNAN?$AA@ 0000000180022cb0     libappcrt:cfout.obj
 0002:00007cb8       ??_C@_05PHHOCPM@1?$CDIND?$AA@ 0000000180022cb8     libappcrt:cfout.obj
 0002:00007cc0       __real@3ff0000000000000    0000000180022cc0     libappcrt:ceil.obj
 0002:00007f20       __log10_256_lead           0000000180022f20     libappcrt:log10_256_lead_tail_table.obj
 0002:00008730       __log10_256_tail           0000000180023730     libappcrt:log10_256_lead_tail_table.obj
 0002:00008f40       __log_F_inv_qword          0000000180023f40     libappcrt:log_F_inv_qword_table.obj
 0002:00009750       ??_C@_03MGHMBJCF@log?$AA@  0000000180024750     libappcrt:log_special.obj
 0002:00009754       ??_C@_05HGHHAHAP@log10?$AA@ 0000000180024754     libappcrt:log_special.obj
 0002:00009770       ??_C@_03KHJOGHMM@exp?$AA@  0000000180024770     libappcrt:fpexcept.obj
 0002:00009774       ??_C@_03JGHBODFD@pow?$AA@  0000000180024774     libappcrt:fpexcept.obj
 0002:00009778       ??_C@_04COOMCNPB@sinh?$AA@ 0000000180024778     libappcrt:fpexcept.obj
 0002:00009780       ??_C@_04HPJJNFIM@cosh?$AA@ 0000000180024780     libappcrt:fpexcept.obj
 0002:00009788       ??_C@_04FJHINJAO@tanh?$AA@ 0000000180024788     libappcrt:fpexcept.obj
 0002:00009790       ??_C@_04FIHNOPOL@asin?$AA@ 0000000180024790     libappcrt:fpexcept.obj
 0002:00009798       ??_C@_04PDIFKINK@acos?$AA@ 0000000180024798     libappcrt:fpexcept.obj
 0002:000097a0       ??_C@_04MLLJIGOK@atan?$AA@ 00000001800247a0     libappcrt:fpexcept.obj
 0002:000097a8       ??_C@_05KNGEOGJB@atan2?$AA@ 00000001800247a8     libappcrt:fpexcept.obj
 0002:000097b0       ??_C@_04EIAKFFMI@sqrt?$AA@ 00000001800247b0     libappcrt:fpexcept.obj
 0002:000097b8       ??_C@_03BLEJJJBH@sin?$AA@  00000001800247b8     libappcrt:fpexcept.obj
 0002:000097bc       ??_C@_03LALBNOCG@cos?$AA@  00000001800247bc     libappcrt:fpexcept.obj
 0002:000097c0       ??_C@_03IIINPABG@tan?$AA@  00000001800247c0     libappcrt:fpexcept.obj
 0002:000097c4       ??_C@_04GFPJNGEK@ceil?$AA@ 00000001800247c4     libappcrt:fpexcept.obj
 0002:000097cc       ??_C@_05PBJFFIGL@floor?$AA@ 00000001800247cc     libappcrt:fpexcept.obj
 0002:000097d4       ??_C@_04ODHECPBC@fabs?$AA@ 00000001800247d4     libappcrt:fpexcept.obj
 0002:000097dc       ??_C@_04EHEDPDJG@modf?$AA@ 00000001800247dc     libappcrt:fpexcept.obj
 0002:000097e4       ??_C@_05CEJMAHNP@ldexp?$AA@ 00000001800247e4     libappcrt:fpexcept.obj
 0002:000097ec       ??_C@_05KBKMEMPO@_cabs?$AA@ 00000001800247ec     libappcrt:fpexcept.obj
 0002:000097f4       ??_C@_06MEIMCGCF@_hypot?$AA@ 00000001800247f4     libappcrt:fpexcept.obj
 0002:000097fc       ??_C@_04KEPJIHGP@fmod?$AA@ 00000001800247fc     libappcrt:fpexcept.obj
 0002:00009804       ??_C@_05GKKHEGJL@frexp?$AA@ 0000000180024804     libappcrt:fpexcept.obj
 0002:0000980c       ??_C@_03MJLDFKDL@_y0?$AA@  000000018002480c     libappcrt:fpexcept.obj
 0002:00009810       ??_C@_03NAKIGLHK@_y1?$AA@  0000000180024810     libappcrt:fpexcept.obj
 0002:00009814       ??_C@_03ONILCKOB@_yn?$AA@  0000000180024814     libappcrt:fpexcept.obj
 0002:00009818       ??_C@_05JGDBENOH@_logb?$AA@ 0000000180024818     libappcrt:fpexcept.obj
 0002:00009820       ??_C@_0L@KDOEJCKC@_nextafter?$AA@ 0000000180024820     libappcrt:fpexcept.obj
 0002:00009830       ??_C@_1BA@BALFACEM@?$AAC?$AAO?$AAN?$AAO?$AAU?$AAT?$AA$?$AA?$AA@ 0000000180024830     libdesktopcrt:initcon.obj
 0002:00009840       ??_C@_1BK@DBDEIDLH@?$AAK?$AAE?$AAR?$AAN?$AAE?$AAL?$AA3?$AA2?$AA?4?$AAD?$AAL?$AAL?$AA?$AA@ 0000000180024840     DelayImp:delayhlp.obj
 0002:00009860       ??_C@_0BI@OMNLIJDB@AcquireSRWLockExclusive?$AA@ 0000000180024860     DelayImp:delayhlp.obj
 0002:00009878       ??_C@_0BI@HMIEPCNJ@ReleaseSRWLockExclusive?$AA@ 0000000180024878     DelayImp:delayhlp.obj
 0002:00009890       _load_config_used          0000000180024890     LIBCMT:loadcfg.obj
 0002:00009928       ??_C@_1DG@OKCGPKIB@?$AAp?$AAe?$AAr?$AAs?$AAi?$AAs?$AAt?$AAe?$AAn?$AAt?$AA?$CI?$AA?$CJ?$AA?4?$AAI?$AAs?$AAN?$AAe?$AAa?$AAr?$AAD?$AAe?$AAa?$AAt?$AAh?$AA?$CI?$AA?$CJ?$AA?$AA@ 0000000180024928     kerberos.obj
 0002:00009960       ??_C@_1CO@EGNPJLKI@?$AAp?$AAe?$AAr?$AAs?$AAi?$AAs?$AAt?$AAe?$AAn?$AAt?$AA?$CI?$AA?$CJ?$AA?4?$AAI?$AAs?$AAE?$AAm?$AAp?$AAt?$AAy?$AA?$CI?$AA?$CJ?$AA?$AA@ 0000000180024960     kerberos.obj
 0002:00009990       ??_C@_1DA@FBGAEOIO@?$AA?$CB?$AAp?$AAe?$AAr?$AAs?$AAi?$AAs?$AAt?$AAe?$AAn?$AAt?$AA?$CI?$AA?$CJ?$AA?4?$AAI?$AAs?$AAE?$AAm?$AAp?$AAt?$AAy?$AA?$CI?$AA?$CJ?$AA?$AA@ 0000000180024990     kerberos.obj
 0002:000099c0       ??_C@_1CO@JCKLEFMA@?$AA?$CB?$AAp?$AAe?$AAr?$AAs?$AAi?$AAs?$AAt?$AAe?$AAn?$AAt?$AA?$CI?$AA?$CJ?$AA?4?$AAI?$AAs?$AAW?$AAe?$AAa?$AAk?$AA?$CI?$AA?$CJ?$AA?$AA@ 00000001800249c0     kerberos.obj
 0002:000099f0       ??_C@_1BE@GMLLOIPJ@?$AAr?$AAe?$AAf?$AAs?$AA_?$AA?5?$AA?$DO?$AA?5?$AA0?$AA?$AA@ 00000001800249f0     kerberos.obj
 0002:00009a08       ??_C@_1CC@GBFLAAPF@?$AAw?$AAr?$AAa?$AAp?$AA?9?$AA?$DO?$AAr?$AAe?$AAf?$AAs?$AA_?$AA?5?$AA?$DN?$AA?$DN?$AA?5?$AA0?$AA?$AA@ 0000000180024a08     kerberos.obj
 0002:00009a30       ??_C@_1DI@ELDBKNAK@?$AAw?$AAr?$AAa?$AAp?$AA?9?$AA?$DO?$AAh?$AAa?$AAn?$AAd?$AAl?$AAe?$AA_?$AA?4?$AAI?$AAs?$AAN?$AAe?$AAa?$AAr?$AAD?$AAe?$AAa?$AAt?$AAh?$AA?$CI?$AA?$CJ?$AA?$AA@ 0000000180024a30     kerberos.obj
 0002:00009a70       ??_C@_1JG@OFFBCOGN@?$AAc?$AA?3?$AA?2?$AAu?$AAs?$AAe?$AAr?$AAs?$AA?2?$AAf?$AAr?$AAa?$AAn?$AAc?$AAe?$AAs?$AAc?$AAo?$AA?2?$AAd?$AAe?$AAs?$AAk?$AAt?$AAo?$AAp?$AA?2?$AAa?$AAm?$AAa?$AAz?$AAo@ 0000000180024a70     kerberos.obj
 0002:00009b10       ??_C@_1EC@MGGLMBLC@?$AAo?$AAb?$AAj?$AAe?$AAc?$AAt?$AA?9?$AA?$DO?$AAI?$AAn?$AAt?$AAe?$AAr?$AAn?$AAa?$AAl?$AAF?$AAi?$AAe?$AAl?$AAd?$AAC?$AAo?$AAu?$AAn?$AAt?$AA?$CI?$AA?$CJ?$AA?5?$AA?$DO?$AA?5?$AA0@ 0000000180024b10     kerberos.obj
 0002:00009b58       ??_C@_08DEIMIBAF@Kerberos?$AA@ 0000000180024b58     kerberos.obj
 0002:00009b68       ??_C@_0BJ@GDGACKLP@?4?4?2lib?2win32?2kerberos?4cc?$AA@ 0000000180024b68     kerberos.obj
 0002:00009b88       ??_C@_08LGHNADKG@kerberos?$AA@ 0000000180024b88     kerberos.obj
 0002:00009c70       ??_7Worker@@6B@            0000000180024c70     worker.obj
 0002:00009c78       ??_C@_0P@LNGNLCKE@EncryptMessage?$AA@ 0000000180024c78     kerberos_sspi.obj
 0002:00009c88       ??_C@_0BI@BMOGBFHP@GetProcAddress?5failed?4?6?$AA@ 0000000180024c88     kerberos_sspi.obj
 0002:00009ca0       ??_C@_0BK@KPHFEPAJ@AcquireCredentialsHandleA?$AA@ 0000000180024ca0     kerberos_sspi.obj
 0002:00009cc0       ??_C@_0BG@LNIAGFEF@DeleteSecurityContext?$AA@ 0000000180024cc0     kerberos_sspi.obj
 0002:00009cd8       ??_C@_0P@ELKOFCKB@DecryptMessage?$AA@ 0000000180024cd8     kerberos_sspi.obj
 0002:00009ce8       ??_C@_0BL@GGJLPDDN@InitializeSecurityContextA?$AA@ 0000000180024ce8     kerberos_sspi.obj
 0002:00009d08       ??_C@_0BI@MJIBHNH@QueryContextAttributesA?$AA@ 0000000180024d08     kerberos_sspi.obj
 0002:00009d20       ??_C@_0BH@COAKKLLC@InitSecurityInterfaceA?$AA@ 0000000180024d20     kerberos_sspi.obj
 0002:00009d38       ??_C@_0DC@EKEJAFJE@Failed?5in?5getting?5the?5function?5a@ 0000000180024d38     kerberos_sspi.obj
 0002:00009d70       ??_C@_0DA@FHAHAAHH@Failed?5in?5getting?5the?5function?5t@ 0000000180024d70     kerberos_sspi.obj
 0002:00009da0       ??_C@_0N@PJNJBDOG@security?4dll?$AA@ 0000000180024da0     kerberos_sspi.obj
 0002:00009db0       ??_C@_0M@KOFABFN@secur32?4dll?$AA@ 0000000180024db0     kerberos_sspi.obj
 0002:00009dc0       ??_7SecurityBuffer@@6B@    0000000180024dc0     security_buffer.obj
 0002:00009de0       ??_C@_1HO@PFPGPPAF@?$AAC?$AA?3?$AA?2?$AAU?$AAs?$AAe?$AAr?$AAs?$AA?2?$AAF?$AAr?$AAa?$AAn?$AAc?$AAe?$AAs?$AAc?$AAo?$AA?2?$AAD?$AAe?$AAs?$AAk?$AAt?$AAo?$AAp?$AA?2?$AAA?$AAm?$AAa?$AAz?$AAo@ 0000000180024de0     security_buffer.obj
 0002:00009e60       ??_C@_1FM@LOELJOFK@?$AAs?$AAi?$AAz?$AAe?$AA?5?$AA?$DM?$AA?$DN?$AA?5?$AAi?$AAm?$AAp?$AA?3?$AA?3?$AAk?$AAM?$AAa?$AAx?$AAL?$AAe?$AAn?$AAg?$AAt?$AAh?$AA?5?$AA?$CG?$AA?$CG?$AA?5?$AA?$CC?$AAt?$AAo?$AAo?$AA?5@ 0000000180024e60     security_buffer.obj
 0002:00009ec0       ??_C@_0FA@CHIMFPJK@Two?5parameters?5needed?5integer?5bu@ 0000000180024ec0     security_buffer.obj
 0002:00009f10       ??_C@_0P@PGNLMPCG@SecurityBuffer?$AA@ 0000000180024f10     security_buffer.obj
 0002:00009f20       ??_C@_08GOCDALDA@toBuffer?$AA@ 0000000180024f20     security_buffer.obj
 0002:00009f30       ??_C@_1CE@LNAGEONJ@?$AA?$CB?$AAo?$AAb?$AAj?$AAe?$AAc?$AAt?$AA?4?$AAI?$AAs?$AAE?$AAm?$AAp?$AAt?$AAy?$AA?$CI?$AA?$CJ?$AA?$AA@ 0000000180024f30     security_buffer.obj
 0002:00009f60       ??_C@_0GI@EKMIFBJO@There?5must?5be?51?5argument?5passed?5@ 0000000180024f60     security_buffer_descriptor.obj
 0002:00009fc8       ??_C@_0BJ@KIPAPIEL@SecurityBufferDescriptor?$AA@ 0000000180024fc8     security_buffer_descriptor.obj
 0002:00009fe4       ??_C@_04NDFOBODE@code?$AA@ 0000000180024fe4     security_context.obj
 0002:00009ff0       ??_C@_0DC@JPMAGDAJ@Failed?5in?5retrieving?5security?5pa@ 0000000180024ff0     security_context.obj
 0002:0000a028       ??_C@_0CH@KCDKPOE@Failed?5in?5retrieving?5security?5pa@ 0000000180025028     security_context.obj
 0002:0000a050       ??_C@_0GB@HCGEPCCF@SEC_E_INSUFFICIENT_MEMORY?5There?5@ 0000000180025050     security_context.obj
 0002:0000a0c0       ??_C@_0EP@KOKMDCGO@SEC_E_INTERNAL_ERROR?5An?5error?5oc@ 00000001800250c0     security_context.obj
 0002:0000a110       ??_C@_0EF@KFOMANMH@SEC_E_INVALID_HANDLE?5The?5handle?5@ 0000000180025110     security_context.obj
 0002:0000a160       ??_C@_0BCN@FHCBAGBO@SEC_E_INVALID_TOKEN?5The?5error?5is@ 0000000180025160     security_context.obj
 0002:0000a290       ??_C@_0CF@EOEOILEK@SEC_E_LOGON_DENIED?5The?5logon?5fai@ 0000000180025290     security_context.obj
 0002:0000a2c0       ??_C@_0OK@PHMMCNKE@SEC_E_NO_AUTHENTICATING_AUTHORIT@ 00000001800252c0     security_context.obj
 0002:0000a3b0       ??_C@_0EL@NAJPEBLN@SEC_E_NO_CREDENTIALS?5No?5credenti@ 00000001800253b0     security_context.obj
 0002:0000a400       ??_C@_0DE@CHDEPDAH@SEC_E_TARGET_UNKNOWN?5The?5target?5@ 0000000180025400     security_context.obj
 0002:0000a440       ??_C@_0KB@DPMKFMBL@SEC_E_UNSUPPORTED_FUNCTION?5A?5con@ 0000000180025440     security_context.obj
 0002:0000a4f0       ??_C@_0ME@OFGBPMFG@SEC_E_WRONG_PRINCIPAL?5The?5princi@ 00000001800254f0     security_context.obj
 0002:0000a5c0       ??_C@_0HN@DGPLJDBF@Initialize?5must?5be?5called?5with?5?$FL@ 00000001800255c0     security_context.obj
 0002:0000a640       ??_C@_0EK@MPIIBFCL@First?5parameter?5for?5Initialize?5m@ 0000000180025640     security_context.obj
 0002:0000a690       ??_C@_0DB@LHOIJJPJ@Second?5parameter?5for?5Initialize?5@ 0000000180025690     security_context.obj
 0002:0000a6c8       ??_C@_0DL@DOCDOHJC@Third?5parameter?5for?5Initialize?5m@ 00000001800256c8     security_context.obj
 0002:0000a710       ??_C@_0FO@DMPEOCEP@Initialize?5must?5be?5called?5with?5?$FL@ 0000000180025710     security_context.obj
 0002:0000a770       ??_C@_0DA@FAEGHCCC@First?5parameter?5for?5Initialize?5m@ 0000000180025770     security_context.obj
 0002:0000a7a0       ??_C@_0GG@OPEHPKBE@EncryptMessage?5takes?5an?5instance@ 00000001800257a0     security_context.obj
 0002:0000a810       ??_C@_0FF@DCBNJPEC@DecryptMessage?5takes?5an?5instance@ 0000000180025810     security_context.obj
 0002:0000a868       ??_C@_08KCCECGFG@maxToken?$AA@ 0000000180025868     security_context.obj
 0002:0000a878       ??_C@_0N@DBOCONKA@maxSignature?$AA@ 0000000180025878     security_context.obj
 0002:0000a888       ??_C@_09NKOHFFHE@blockSize?$AA@ 0000000180025888     security_context.obj
 0002:0000a898       ??_C@_0BA@FMIKGFAP@securityTrailer?$AA@ 0000000180025898     security_context.obj
 0002:0000a8b0       ??_C@_0FN@KPCLPFDP@QueryContextAttributes?5method?5ta@ 00000001800258b0     security_context.obj
 0002:0000a910       ??_C@_0EF@LHGFKNB@QueryContextAttributes?5only?5supp@ 0000000180025910     security_context.obj
 0002:0000a958       ??_C@_0BA@GNEIOCIH@SecurityContext?$AA@ 0000000180025958     security_context.obj
 0002:0000a968       ??_C@_0L@COJDPPJA@initialize?$AA@ 0000000180025968     security_context.obj
 0002:0000a978       ??_C@_0P@MDGLGMDP@decryptMessage?$AA@ 0000000180025978     security_context.obj
 0002:0000a988       ??_C@_0BH@CNDCJCFF@queryContextAttributes?$AA@ 0000000180025988     security_context.obj
 0002:0000a9a0       ??_C@_0P@DFKIIMDK@encryptMessage?$AA@ 00000001800259a0     security_context.obj
 0002:0000a9b0       ??_C@_07EAGCNIPD@payload?$AA@ 00000001800259b0     security_context.obj
 0002:0000a9b8       ??_C@_0L@HAGNPKDM@hasContext?$AA@ 00000001800259b8     security_context.obj
 0002:0000a9d0       ??_C@_0FE@BBCFDPPF@SEC_E_BUFFER_TOO_SMALL?5?9?5The?5mes@ 00000001800259d0     security_context.obj
 0002:0000aa30       ??_C@_0HF@NKBADJBH@SEC_E_CRYPTO_SYSTEM_INVALID?5?9?5Th@ 0000000180025a30     security_context.obj
 0002:0000aab0       ??_C@_0KM@EKLHGFOE@SEC_E_INCOMPLETE_MESSAGE?5?9?5The?5d@ 0000000180025ab0     security_context.obj
 0002:0000ab60       ??_C@_0IM@BILLKCAN@SEC_E_INVALID_HANDLE?5?9?5A?5context@ 0000000180025b60     security_context.obj
 0002:0000abf0       ??_C@_0ID@NGKIHGM@SEC_E_INVALID_TOKEN?5?9?5The?5buffer@ 0000000180025bf0     security_context.obj
 0002:0000ac80       ??_C@_0FO@JHJGDCDJ@SEC_E_MESSAGE_ALTERED?5?9?5The?5mess@ 0000000180025c80     security_context.obj
 0002:0000ace0       ??_C@_0EO@HCKPPGBO@SEC_E_OUT_OF_SEQUENCE?5?9?5The?5mess@ 0000000180025ce0     security_context.obj
 0002:0000ad30       ??_C@_0IB@ONCCLLPA@SEC_E_QOP_NOT_SUPPORTED?5?9?5Neithe@ 0000000180025d30     security_context.obj
 0002:0000adc0       ??_C@_0GL@BGCLCBIE@SEC_I_CONTEXT_EXPIRED?5?9?5The?5mess@ 0000000180025dc0     security_context.obj
 0002:0000ae30       ??_C@_0HJ@FFIIBIJK@SEC_I_RENEGOTIATE?5?9?5The?5remote?5p@ 0000000180025e30     security_context.obj
 0002:0000aeb0       ??_C@_0ED@EPAKHBJA@SEC_E_ENCRYPT_FAILURE?5?9?5The?5spec@ 0000000180025eb0     security_context.obj
 0002:0000af00       ??_C@_0ED@GPIFOGHF@SEC_E_DECRYPT_FAILURE?5?9?5The?5spec@ 0000000180025f00     security_context.obj
 0002:0000af48       ??_C@_0CE@HAAKKMGE@Failed?5to?5load?5security?4dll?5libr@ 0000000180025f48     security_context.obj
 0002:0000af70       ??_7SecurityContext@@6B@   0000000180025f70     security_context.obj
 0002:0000af90       ??_C@_0HJ@MLPHBGJO@Aquire?5must?5be?5called?5with?5eithe@ 0000000180025f90     security_credentials.obj
 0002:0000b010       ??_C@_0BE@LGGAFGDB@SecurityCredentials?$AA@ 0000000180026010     security_credentials.obj
 0002:0000b024       ??_C@_06LHMPENFO@aquire?$AA@ 0000000180026024     security_credentials.obj
 0002:0000b030       ??_C@_0KI@MIGAHMJN@SEC_E_INCOMPLETE_MESSAGE?5?9?5The?5d@ 0000000180026030     security_credentials.obj
 0002:0000b0d8       ??_7ObjectWrap@Nan@@6B@    00000001800260d8     kerberos.obj
 0002:0000b0d8       ??_7Kerberos@@6B@          00000001800260d8     kerberos.obj
 0002:0000b0d8       ??_7SecurityBufferDescriptor@@6B@ 00000001800260d8     security_buffer_descriptor.obj
 0002:0000b0d8       ??_7SecurityCredentials@@6B@ 00000001800260d8     security_credentials.obj
 0002:0000b0f0       ??_C@_08HCOMDCCD@iojs?4exe?$AA@ 00000001800260f0     win_delay_load_hook.obj
 0002:0000b100       ??_C@_08JDDNMFDB@node?4exe?$AA@ 0000000180026100     win_delay_load_hook.obj
 0002:0000b198       ??_R4exception@std@@6B@    0000000180026198     LIBCMT:throw_bad_alloc.obj
 0002:0000b1c0       ??_R3exception@std@@8      00000001800261c0     LIBCMT:throw_bad_alloc.obj
 0002:0000b1d8       ??_R2exception@std@@8      00000001800261d8     LIBCMT:throw_bad_alloc.obj
 0002:0000b1e8       ??_R1A@?0A@EA@exception@std@@8 00000001800261e8     LIBCMT:throw_bad_alloc.obj
 0002:0000b210       ??_R4bad_alloc@std@@6B@    0000000180026210     LIBCMT:throw_bad_alloc.obj
 0002:0000b238       ??_R3bad_alloc@std@@8      0000000180026238     LIBCMT:throw_bad_alloc.obj
 0002:0000b250       ??_R2bad_alloc@std@@8      0000000180026250     LIBCMT:throw_bad_alloc.obj
 0002:0000b268       ??_R1A@?0A@EA@bad_alloc@std@@8 0000000180026268     LIBCMT:throw_bad_alloc.obj
 0002:0000b290       ??_R4bad_array_new_length@std@@6B@ 0000000180026290     LIBCMT:throw_bad_alloc.obj
 0002:0000b2b8       ??_R3bad_array_new_length@std@@8 00000001800262b8     LIBCMT:throw_bad_alloc.obj
 0002:0000b2d0       ??_R2bad_array_new_length@std@@8 00000001800262d0     LIBCMT:throw_bad_alloc.obj
 0002:0000b2f0       ??_R1A@?0A@EA@bad_array_new_length@std@@8 00000001800262f0     LIBCMT:throw_bad_alloc.obj
 0002:0000b318       ??_R4type_info@@6B@        0000000180026318     LIBCMT:std_type_info_static.obj
 0002:0000b340       ??_R3type_info@@8          0000000180026340     LIBCMT:std_type_info_static.obj
 0002:0000b358       ??_R2type_info@@8          0000000180026358     LIBCMT:std_type_info_static.obj
 0002:0000b368       ??_R1A@?0A@EA@type_info@@8 0000000180026368     LIBCMT:std_type_info_static.obj
 0002:0000b390       __rtc_iaa                  0000000180026390     LIBCMT:initsect.obj
 0002:0000b398       __rtc_izz                  0000000180026398     LIBCMT:initsect.obj
 0002:0000b3a0       __rtc_taa                  00000001800263a0     LIBCMT:initsect.obj
 0002:0000b3a8       __rtc_tzz                  00000001800263a8     LIBCMT:initsect.obj
 0002:0000c778       _TI2?AVbad_alloc@std@@     0000000180027778     LIBCMT:throw_bad_alloc.obj
 0002:0000c798       _CTA2?AVbad_alloc@std@@    0000000180027798     LIBCMT:throw_bad_alloc.obj
 0002:0000c7b0       _CT??_R0?AVbad_alloc@std@@@8??0bad_alloc@std@@QEAA@AEBV01@@Z24 00000001800277b0     LIBCMT:throw_bad_alloc.obj
 0002:0000c7d8       _CT??_R0?AVexception@std@@@8??0exception@std@@QEAA@AEBV01@@Z24 00000001800277d8     LIBCMT:throw_bad_alloc.obj
 0002:0000c800       _TI3?AVbad_array_new_length@std@@ 0000000180027800     LIBCMT:throw_bad_alloc.obj
 0002:0000c820       _CTA3?AVbad_array_new_length@std@@ 0000000180027820     LIBCMT:throw_bad_alloc.obj
 0002:0000c840       _CT??_R0?AVbad_array_new_length@std@@@8??0bad_array_new_length@std@@QEAA@AEBV01@@Z24 0000000180027840     LIBCMT:throw_bad_alloc.obj
 0002:0000c864       __DELAY_IMPORT_DESCRIPTOR_node_exe 0000000180027864     node:node.exe
 0002:0000c884       __NULL_DELAY_IMPORT_DESCRIPTOR 0000000180027884     node:node.exe
 0002:0000cb28       \177node_NULL_THUNK_DATA_DLN 0000000180027b28     node:node.exe
 0002:0000df80       \177node_NULL_THUNK_DATA_DLB 0000000180028f80     node:node.exe
 0002:0000e254       __IMPORT_DESCRIPTOR_KERNEL32 0000000180029254     kernel32:KERNEL32.dll
 0002:0000e268       __NULL_IMPORT_DESCRIPTOR   0000000180029268     kernel32:KERNEL32.dll
 0003:00000000       __security_cookie          000000018002a000     LIBCMT:gs_cookie.obj
 0003:00000008       __security_cookie_complement 000000018002a008     LIBCMT:gs_cookie.obj
 0003:00000010       __scrt_native_dllmain_reason 000000018002a010     LIBCMT:utility.obj
 0003:00000018       __memcpy_nt_iters          000000018002a018     LIBCMT:cpu_disp.obj
 0003:00000020       __isa_available            000000018002a020     LIBCMT:cpu_disp.obj
 0003:00000024       __isa_enabled              000000018002a024     LIBCMT:cpu_disp.obj
 0003:00000040       _iob                       000000018002a040     libappcrt:_file.obj
 0003:00000148       __abort_behavior           000000018002a148     libappcrt:abort.obj
 0003:000002c0       __badioinfo                000000018002a2c0     libappcrt:ioinit.obj
 0003:00000310       __mb_cur_max               000000018002a310     libappcrt:nlsdata.obj
 0003:00000314       __acrt_wide_c_locale_string 000000018002a314     libappcrt:nlsdata.obj
 0003:00000320       __lc_time_c                000000018002a320     libappcrt:nlsdata.obj
 0003:000005e0       __acrt_initial_locale_data 000000018002a5e0     libappcrt:nlsdata.obj
 0003:00000738       __acrt_initial_locale_pointers 000000018002a738     libappcrt:nlsdata.obj
 0003:00000750       __acrt_initial_multibyte_data 000000018002a750     libappcrt:mbctype.obj
 0003:00000978       __acrt_current_multibyte_data 000000018002a978     libappcrt:mbctype.obj
 0003:00000a80       _mbctype                   000000018002aa80     libappcrt:mbctype.obj
 0003:00000b90       _mbcasemap                 000000018002ab90     libappcrt:mbctype.obj
 0003:00000c90       _pctype                    000000018002ac90     libappcrt:ctype.obj
 0003:00000c98       _pwctype                   000000018002ac98     libappcrt:ctype.obj
 0003:00000ca0       __acrt_lconv_c             000000018002aca0     libappcrt:localeconv.obj
 0003:00000d38       __acrt_lconv               000000018002ad38     libappcrt:localeconv.obj
 0003:00000d40       __acrt_lconv_static_decimal 000000018002ad40     libappcrt:localeconv.obj
 0003:00000d44       __acrt_lconv_static_W_decimal 000000018002ad44     libappcrt:localeconv.obj
 0003:00000d48       __globallocalestatus       000000018002ad48     libappcrt:glstatus.obj
 0003:00000f38       _d_inf                     000000018002af38     libappcrt:util.obj
 0003:00000f40       _d_ind                     000000018002af40     libappcrt:util.obj
 0003:00000f48       _d_max                     000000018002af48     libappcrt:util.obj
 0003:00000f50       _d_min                     000000018002af50     libappcrt:util.obj
 0003:00000f58       _d_mzero                   000000018002af58     libappcrt:util.obj
 0003:00000f68       __dcrt_lowio_console_output_handle 000000018002af68     libdesktopcrt:initcon.obj
 0003:00000f70       _fltused                   000000018002af70     LIBCMT:fltused.obj
 0003:00000fc0       __pfnDliNotifyHook2        000000018002afc0     win_delay_load_hook.obj
 0003:00000fc8       ??_R0?AVbad_alloc@std@@@8  000000018002afc8     LIBCMT:throw_bad_alloc.obj
 0003:00000ff0       ??_R0?AVexception@std@@@8  000000018002aff0     LIBCMT:throw_bad_alloc.obj
 0003:00001018       ??_R0?AVbad_array_new_length@std@@@8 000000018002b018     LIBCMT:throw_bad_alloc.obj
 0003:00001048       ??_R0?AVtype_info@@@8      000000018002b048     LIBCMT:std_type_info_static.obj
 0003:00001068       __imp_node_module_register 000000018002b068     node:node.exe
 0003:00001070       __imp_?ToLocalEmpty@V8@v8@@CAXXZ 000000018002b070     node:node.exe
 0003:00001078       __imp_?ClearWeak@V8@v8@@CAPEAXPEAPEAVObject@internal@2@@Z 000000018002b078     node:node.exe
 0003:00001080       __imp_?MakeWeak@V8@v8@@CAXPEAPEAVObject@internal@2@PEAXP6AXAEBV?$WeakCallbackInfo@X@2@@ZW4WeakCallbackType@2@@Z 000000018002b080     node:node.exe
 0003:00001088       __imp_?DisposeGlobal@V8@v8@@CAXPEAPEAVObject@internal@2@@Z 000000018002b088     node:node.exe
 0003:00001090       __imp_?GlobalizeReference@V8@v8@@CAPEAPEAVObject@internal@2@PEAVIsolate@42@PEAPEAV342@@Z 000000018002b090     node:node.exe
 0003:00001098       __imp_?Escape@EscapableHandleScope@v8@@AEAAPEAPEAVObject@internal@2@PEAPEAV342@@Z 000000018002b098     node:node.exe
 0003:000010a0       __imp_??0EscapableHandleScope@v8@@QEAA@PEAVIsolate@1@@Z 000000018002b0a0     node:node.exe
 0003:000010a8       __imp_?SetClassName@FunctionTemplate@v8@@QEAAXV?$Local@VString@v8@@@2@@Z 000000018002b0a8     node:node.exe
 0003:000010b0       __imp_?InstanceTemplate@FunctionTemplate@v8@@QEAA?AV?$Local@VObjectTemplate@v8@@@2@XZ 000000018002b0b0     node:node.exe
 0003:000010b8       __imp_?GetFunction@FunctionTemplate@v8@@QEAA?AV?$Local@VFunction@v8@@@2@XZ 000000018002b0b8     node:node.exe
 0003:000010c0       __imp_?New@FunctionTemplate@v8@@SA?AV?$Local@VFunctionTemplate@v8@@@2@PEAVIsolate@2@P6AXAEBV?$FunctionCallbackInfo@VValue@v8@@@2@@ZV?$Local@VValue@v8@@@2@V?$Local@VSignature@v8@@@2@H@Z 000000018002b0c0     node:node.exe
 0003:000010c8       __imp_?NewFromUtf8@String@v8@@SA?AV?$MaybeLocal@VString@v8@@@2@PEAVIsolate@2@PEBDW4NewStringType@2@H@Z 000000018002b0c8     node:node.exe
 0003:000010d0       __imp_?CreateHandle@HandleScope@v8@@KAPEAPEAVObject@internal@2@PEAVIsolate@42@PEAV342@@Z 000000018002b0d0     node:node.exe
 0003:000010d8       __imp_?CreateHandle@HandleScope@v8@@CAPEAPEAVObject@internal@2@PEAVHeapObject@42@PEAV342@@Z 000000018002b0d8     node:node.exe
 0003:000010e0       __imp_??1HandleScope@v8@@QEAA@XZ 000000018002b0e0     node:node.exe
 0003:000010e8       __imp_??0HandleScope@v8@@QEAA@PEAVIsolate@1@@Z 000000018002b0e8     node:node.exe
 0003:000010f0       __imp_?SlowGetInternalField@Object@v8@@AEAA?AV?$Local@VValue@v8@@@2@H@Z 000000018002b0f0     node:node.exe
 0003:000010f8       __imp_?SetAlignedPointerInInternalField@Object@v8@@QEAAXHPEAX@Z 000000018002b0f8     node:node.exe
 0003:00001100       __imp_?SetInternalField@Object@v8@@QEAAXHV?$Local@VValue@v8@@@2@@Z 000000018002b100     node:node.exe
 0003:00001108       __imp_?InternalFieldCount@Object@v8@@QEAAHXZ 000000018002b108     node:node.exe
 0003:00001110       __imp_?Set@Object@v8@@QEAA?AV?$Maybe@_N@2@V?$Local@VContext@v8@@@2@V?$Local@VValue@v8@@@2@1@Z 000000018002b110     node:node.exe
 0003:00001118       __imp_?SetInternalFieldCount@ObjectTemplate@v8@@QEAAXH@Z 000000018002b118     node:node.exe
 0003:00001120       __imp_?NewInstance@ObjectTemplate@v8@@QEAA?AV?$MaybeLocal@VObject@v8@@@2@V?$Local@VContext@v8@@@2@@Z 000000018002b120     node:node.exe
 0003:00001128       __imp_?New@ObjectTemplate@v8@@SA?AV?$Local@VObjectTemplate@v8@@@2@PEAVIsolate@2@V?$Local@VFunctionTemplate@v8@@@2@@Z 000000018002b128     node:node.exe
 0003:00001130       __imp_?GetCurrentContext@Isolate@v8@@QEAA?AV?$Local@VContext@v8@@@2@XZ 000000018002b130     node:node.exe
 0003:00001138       __imp_?GetCurrent@Isolate@v8@@SAPEAV12@XZ 000000018002b138     node:node.exe
 0003:00001140       __imp_?Value@External@v8@@QEBAPEAXXZ 000000018002b140     node:node.exe
 0003:00001148       __imp_?New@External@v8@@SA?AV?$Local@VExternal@v8@@@2@PEAVIsolate@2@PEAX@Z 000000018002b148     node:node.exe
 0003:00001150       __imp_?Length@Buffer@node@@YA_KV?$Local@VObject@v8@@@v8@@@Z 000000018002b150     node:node.exe
 0003:00001158       __imp_?Data@Buffer@node@@YAPEADV?$Local@VObject@v8@@@v8@@@Z 000000018002b158     node:node.exe
 0003:00001160       __imp_?HasInstance@Buffer@node@@YA_NV?$Local@VValue@v8@@@v8@@@Z 000000018002b160     node:node.exe
 0003:00001168       __imp_?Copy@Buffer@node@@YA?AV?$MaybeLocal@VObject@v8@@@v8@@PEAVIsolate@4@PEBD_K@Z 000000018002b168     node:node.exe
 0003:00001170       __imp_?New@Signature@v8@@SA?AV?$Local@VSignature@v8@@@2@PEAVIsolate@2@V?$Local@VFunctionTemplate@v8@@@2@@Z 000000018002b170     node:node.exe
 0003:00001178       __imp_?IsInt32@Value@v8@@QEBA_NXZ 000000018002b178     node:node.exe
 0003:00001180       __imp_?PrototypeTemplate@FunctionTemplate@v8@@QEAA?AV?$Local@VObjectTemplate@v8@@@2@XZ 000000018002b180     node:node.exe
 0003:00001188       __imp_?GetFunction@FunctionTemplate@v8@@QEAA?AV?$MaybeLocal@VFunction@v8@@@2@V?$Local@VContext@v8@@@2@@Z 000000018002b188     node:node.exe
 0003:00001190       __imp_?Error@Exception@v8@@SA?AV?$Local@VValue@v8@@@2@V?$Local@VString@v8@@@2@@Z 000000018002b190     node:node.exe
 0003:00001198       __imp_?SlowGetAlignedPointerFromInternalField@Object@v8@@AEAAPEAXH@Z 000000018002b198     node:node.exe
 0003:000011a0       __imp_?ForceSet@Object@v8@@QEAA_NV?$Local@VValue@v8@@@2@0W4PropertyAttribute@2@@Z 000000018002b1a0     node:node.exe
 0003:000011a8       __imp_?Set@Template@v8@@QEAAXV?$Local@VName@v8@@@2@V?$Local@VData@v8@@@2@W4PropertyAttribute@2@@Z 000000018002b1a8     node:node.exe
 0003:000011b0       __imp_?SetName@Function@v8@@QEAAXV?$Local@VString@v8@@@2@@Z 000000018002b1b0     node:node.exe
 0003:000011b8       __imp_?Value@Uint32@v8@@QEBAIXZ 000000018002b1b8     node:node.exe
 0003:000011c0       __imp_?ThrowException@Isolate@v8@@QEAA?AV?$Local@VValue@v8@@@2@V32@@Z 000000018002b1c0     node:node.exe
 0003:000011c8       __imp_?ToUint32@Value@v8@@QEBA?AV?$Local@VUint32@v8@@@2@XZ 000000018002b1c8     node:node.exe
 0003:000011d0       __imp_?ToObject@Value@v8@@QEBA?AV?$Local@VObject@v8@@@2@XZ 000000018002b1d0     node:node.exe
 0003:000011d8       __imp_?ToInt32@Value@v8@@QEBA?AV?$MaybeLocal@VInt32@v8@@@2@V?$Local@VContext@v8@@@2@@Z 000000018002b1d8     node:node.exe
 0003:000011e0       __imp_?IsObject@Value@v8@@QEBA_NXZ 000000018002b1e0     node:node.exe
 0003:000011e8       __imp_?IsArray@Value@v8@@QEBA_NXZ 000000018002b1e8     node:node.exe
 0003:000011f0       __imp_?HasInstance@FunctionTemplate@v8@@QEAA_NV?$Local@VValue@v8@@@2@@Z 000000018002b1f0     node:node.exe
 0003:000011f8       __imp_?New@Array@v8@@SA?AV?$Local@VArray@v8@@@2@PEAVIsolate@2@H@Z 000000018002b1f8     node:node.exe
 0003:00001200       __imp_?Length@Array@v8@@QEBAIXZ 000000018002b200     node:node.exe
 0003:00001208       __imp_?Get@Object@v8@@QEAA?AV?$Local@VValue@v8@@@2@I@Z 000000018002b208     node:node.exe
 0003:00001210       __imp_?Set@Object@v8@@QEAA_NIV?$Local@VValue@v8@@@2@@Z 000000018002b210     node:node.exe
 0003:00001218       __imp_?New@Integer@v8@@SA?AV?$Local@VInteger@v8@@@2@PEAVIsolate@2@H@Z 000000018002b218     node:node.exe
 0003:00001220       __imp_?NewInstance@Function@v8@@QEBA?AV?$Local@VObject@v8@@@2@HQEAV?$Local@VValue@v8@@@2@@Z 000000018002b220     node:node.exe
 0003:00001228       __imp_?FatalException@node@@YAXPEAVIsolate@v8@@AEBVTryCatch@3@@Z 000000018002b228     node:node.exe
 0003:00001230       __imp_?MakeCallback@node@@YA?AV?$Local@VValue@v8@@@v8@@PEAVIsolate@3@V?$Local@VObject@v8@@@3@V?$Local@VFunction@v8@@@3@HPEAV23@@Z 000000018002b230     node:node.exe
 0003:00001238       __imp_uv_default_loop      000000018002b238     node:node.exe
 0003:00001240       __imp_?HasCaught@TryCatch@v8@@QEBA_NXZ 000000018002b240     node:node.exe
 0003:00001248       __imp_??1TryCatch@v8@@QEAA@XZ 000000018002b248     node:node.exe
 0003:00001250       __imp_??0TryCatch@v8@@QEAA@PEAVIsolate@1@@Z 000000018002b250     node:node.exe
 0003:00001258       __imp_?Global@Context@v8@@QEAA?AV?$Local@VObject@v8@@@2@XZ 000000018002b258     node:node.exe
 0003:00001260       __imp_?ToInteger@Value@v8@@QEBA?AV?$MaybeLocal@VInteger@v8@@@2@V?$Local@VContext@v8@@@2@@Z 000000018002b260     node:node.exe
 0003:00001268       __imp_?IsUint32@Value@v8@@QEBA_NXZ 000000018002b268     node:node.exe
 0003:00001270       __imp_?IsFunction@Value@v8@@QEBA_NXZ 000000018002b270     node:node.exe
 0003:00001278       __imp_?WriteUtf8@String@v8@@QEBAHPEADHPEAHH@Z 000000018002b278     node:node.exe
 0003:00001280       __imp_?Utf8Length@String@v8@@QEBAHXZ 000000018002b280     node:node.exe
 0003:00001288       __imp_?New@Object@v8@@SA?AV?$Local@VObject@v8@@@2@PEAVIsolate@2@@Z 000000018002b288     node:node.exe
 0003:00001290       __imp_?Set@Object@v8@@QEAA_NV?$Local@VValue@v8@@@2@0@Z 000000018002b290     node:node.exe
 0003:00001298       __imp_?Set@Object@v8@@QEAA?AV?$Maybe@_N@2@V?$Local@VContext@v8@@@2@IV?$Local@VValue@v8@@@2@@Z 000000018002b298     node:node.exe
 0003:000012a0       __imp_?Value@Int32@v8@@QEBAHXZ 000000018002b2a0     node:node.exe
 0003:000012a8       __imp_?SetAccessor@ObjectTemplate@v8@@QEAAXV?$Local@VName@v8@@@2@P6AX0AEBV?$PropertyCallbackInfo@VValue@v8@@@2@@ZP6AX0V?$Local@VValue@v8@@@2@AEBV?$PropertyCallbackInfo@X@2@@Z3W4AccessControl@2@W4PropertyAttribute@2@V?$Local@VAccessorSignature@v8@@@2@@Z 000000018002b2a8     node:node.exe
 0003:000012b0       __imp_?Value@Integer@v8@@QEBA_JXZ 000000018002b2b0     node:node.exe
 0003:000012b8       __imp_?NewFromUnsigned@Integer@v8@@SA?AV?$Local@VInteger@v8@@@2@PEAVIsolate@2@I@Z 000000018002b2b8     node:node.exe
 0003:000012c0       __imp_?NewInstance@Function@v8@@QEBA?AV?$Local@VObject@v8@@@2@XZ 000000018002b2c0     node:node.exe
 0003:000012c8       __imp_uv_queue_work        000000018002b2c8     node:node.exe
 0003:000012d0       __imp_?ToInt32@Value@v8@@QEBA?AV?$Local@VInt32@v8@@@2@XZ 000000018002b2d0     node:node.exe
 0003:000012d8       __imp_?ToInteger@Value@v8@@QEBA?AV?$Local@VInteger@v8@@@2@XZ 000000018002b2d8     node:node.exe
 0003:000012e0       __imp_?ToString@Value@v8@@QEBA?AV?$Local@VString@v8@@@2@XZ 000000018002b2e0     node:node.exe
 0003:000012e8       \177node_NULL_THUNK_DATA_DLA 000000018002b2e8     node:node.exe
 0003:000012f0       __hmod__node_exe           000000018002b2f0     node:node.exe
 0003:00001870       ?__type_info_root_node@@3U__type_info_node@@A 000000018002b870     LIBCMT:tncleanup.obj
 0003:00001880       __scrt_current_native_startup_state 000000018002b880     LIBCMT:utility.obj
 0003:00001888       __scrt_native_startup_lock 000000018002b888     LIBCMT:utility.obj
 0003:00001894       __scrt_debugger_hook_flag  000000018002b894     LIBCMT:utility_desktop.obj
 0003:00001898       __favor                    000000018002b898     LIBCMT:cpu_disp.obj
 0003:000018e0       ?pArgList@UnDecorator@@0PEAVReplicator@@EA 000000018002b8e0     libvcruntime:undname.obj
 0003:000018e8       ?pZNameList@UnDecorator@@0PEAVReplicator@@EA 000000018002b8e8     libvcruntime:undname.obj
 0003:000018f0       ?pTemplateArgList@UnDecorator@@0PEAVReplicator@@EA 000000018002b8f0     libvcruntime:undname.obj
 0003:000018f8       ?gName@UnDecorator@@0PEBDEB 000000018002b8f8     libvcruntime:undname.obj
 0003:00001900       ?name@UnDecorator@@0PEBDEB 000000018002b900     libvcruntime:undname.obj
 0003:00001908       ?outputString@UnDecorator@@0PEADEA 000000018002b908     libvcruntime:undname.obj
 0003:00001910       ?maxStringLength@UnDecorator@@0HA 000000018002b910     libvcruntime:undname.obj
 0003:00001914       ?disableFlags@UnDecorator@@0KA 000000018002b914     libvcruntime:undname.obj
 0003:00001918       ?fExplicitTemplateParams@UnDecorator@@0_NA 000000018002b918     libvcruntime:undname.obj
 0003:00001919       ?fGetTemplateArgumentList@UnDecorator@@0_NA 000000018002b919     libvcruntime:undname.obj
 0003:00001920       ?m_pGetParameter@UnDecorator@@0P6APEADJ@ZEA 000000018002b920     libvcruntime:undname.obj
 0003:00001a28       __pPurecall                000000018002ba28     libvcruntime:purevirt_data.obj
 0003:00001a30       __acrt_atexit_table        000000018002ba30     libappcrt:onexit.obj
 0003:00001a48       __acrt_at_quick_exit_table 000000018002ba48     libappcrt:onexit.obj
 0003:00001a60       _nstream                   000000018002ba60     libappcrt:_file.obj
 0003:00001a64       _cflush                    000000018002ba64     libappcrt:_file.obj
 0003:00001a68       __piob                     000000018002ba68     libappcrt:_file.obj
 0003:00003480       __pioinfo                  000000018002d480     libappcrt:ioinit.obj
 0003:00003880       _nhandle                   000000018002d880     libappcrt:ioinit.obj
 0003:00003890       __acrt_stdout_buffer       000000018002d890     libappcrt:_sftbuf.obj
 0003:00003898       __acrt_stderr_buffer       000000018002d898     libappcrt:_sftbuf.obj
 0003:000038a0       __acrt_current_locale_data 000000018002d8a0     libappcrt:nlsdata.obj
 0003:000038b8       __acrt_heap                000000018002d8b8     libappcrt:heap_handle.obj
 0003:000038c0       __argc                     000000018002d8c0     libappcrt:argv_data.obj
 0003:000038c8       __argv                     000000018002d8c8     libappcrt:argv_data.obj
 0003:000038d0       __wargv                    000000018002d8d0     libappcrt:argv_data.obj
 0003:000038d8       _pgmptr                    000000018002d8d8     libappcrt:argv_data.obj
 0003:000038e0       _wpgmptr                   000000018002d8e0     libappcrt:argv_data.obj
 0003:000038e8       _acmdln                    000000018002d8e8     libappcrt:argv_data.obj
 0003:000038f0       _wcmdln                    000000018002d8f0     libappcrt:argv_data.obj
 0003:00003900       __mbcodepage               000000018002d900     libappcrt:mbctype.obj
 0003:00003904       __ismbcodepage             000000018002d904     libappcrt:mbctype.obj
 0003:00003908       __mbulinfo                 000000018002d908     libappcrt:mbctype.obj
 0003:00003918       __mblocalename             000000018002d918     libappcrt:mbctype.obj
 0003:0000392c       __acrt_lconv_static_null   000000018002d92c     libappcrt:localeconv.obj
 0003:00003930       __acrt_lconv_static_W_null 000000018002d930     libappcrt:localeconv.obj
 0003:00003b14       __fma3_is_available        000000018002db14     libappcrt:fma3_available.obj
 0003:00003b18       __use_fma3_lib             000000018002db18     libappcrt:fma3_available.obj
 0003:00003b20       _environ_table             000000018002db20     libdesktopcrt:environment_initialization.obj
 0003:00003b28       _wenviron_table            000000018002db28     libdesktopcrt:environment_initialization.obj
 0003:00003b30       __dcrt_initial_wide_environment 000000018002db30     libdesktopcrt:environment_initialization.obj
 0003:00003b38       __dcrt_initial_narrow_environment 000000018002db38     libdesktopcrt:environment_initialization.obj
 0003:00003b40       ?DloadKernel32@@3PEAUHINSTANCE__@@EA 000000018002db40     DelayImp:delayhlp.obj
 0003:00003b48       ?DloadAcquireSRWLockExclusive@@3P6AXPEA_K@ZEA 000000018002db48     DelayImp:delayhlp.obj
 0003:00003b50       ?DloadReleaseSRWLockExclusive@@3P6AXPEA_K@ZEA 000000018002db50     DelayImp:delayhlp.obj
 0003:00003b58       ?DloadSrwLock@@3_KA        000000018002db58     DelayImp:delayhlp.obj
 0003:00003b60       ?DloadSectionLockCount@@3KA 000000018002db60     DelayImp:delayhlp.obj
 0003:00003b64       ?DloadSectionOldProtection@@3KA 000000018002db64     DelayImp:delayhlp.obj
 0003:00003b68       ?DloadSectionCommitPermanent@@3KA 000000018002db68     DelayImp:delayhlp.obj
 0003:00003b70       __pfnDliFailureHook2       000000018002db70     DelayImp:delayhk1.obj
 0003:00003b88       ?constructor_template@Kerberos@@2V?$Persistent@VFunctionTemplate@v8@@V?$NonCopyablePersistentTraits@VFunctionTemplate@v8@@@2@@Nan@@A 000000018002db88     kerberos.obj
 0003:00003b90       ?constructor_template@SecurityBuffer@@2V?$Persistent@VFunctionTemplate@v8@@V?$NonCopyablePersistentTraits@VFunctionTemplate@v8@@@2@@Nan@@A 000000018002db90     security_buffer.obj
 0003:00003b98       ?constructor_template@SecurityBufferDescriptor@@2V?$Persistent@VFunctionTemplate@v8@@V?$NonCopyablePersistentTraits@VFunctionTemplate@v8@@@2@@Nan@@A 000000018002db98     security_buffer_descriptor.obj
 0003:00003ba0       ?constructor_template@SecurityContext@@2V?$Persistent@VFunctionTemplate@v8@@V?$NonCopyablePersistentTraits@VFunctionTemplate@v8@@@2@@Nan@@A 000000018002dba0     security_context.obj
 0003:00003ba8       ?constructor_template@SecurityCredentials@@2V?$Persistent@VFunctionTemplate@v8@@V?$NonCopyablePersistentTraits@VFunctionTemplate@v8@@@2@@Nan@@A 000000018002dba8     security_credentials.obj
 0003:00003bb0       ?_OptionsStorage@?1??__local_stdio_printf_options@@9@4_KA 000000018002dbb0     security_context.obj
 0003:00003bb8       __dyn_tls_init_callback    000000018002dbb8     <common>
 0003:00003bc0       _pDestructExceptionObject  000000018002dbc0     <common>
 0003:00003bc8       ?_OptionsStorage@?1??__local_stdio_printf_options@@9@9 000000018002dbc8     <common>

 entry point at        0001:00006864

 Static symbols

 0000:fffce000       .debug$S                   0000000180000000     node:node.exe
 0000:fffce000       .debug$S                   0000000180000000     kernel32:KERNEL32.dll
 0000:fffce000       .debug$S                   0000000180000000     kernel32:KERNEL32.dll
 0000:fffce000       .debug$S                   0000000180000000     kernel32:KERNEL32.dll
 0000:fffce000       .debug$S                   0000000180000000     kernel32:KERNEL32.dll
 0000:fffce000       .debug$S                   0000000180000000     kernel32:KERNEL32.dll
 0000:fffce000       .debug$S                   0000000180000000     kernel32:KERNEL32.dll
 0000:fffce000       .debug$S                   0000000180000000     kernel32:KERNEL32.dll
 0000:fffce000       .debug$S                   0000000180000000     kernel32:KERNEL32.dll
 0000:fffce000       .debug$S                   0000000180000000     kernel32:KERNEL32.dll
 0000:fffce000       .debug$S                   0000000180000000     kernel32:KERNEL32.dll
 0000:fffce000       .debug$S                   0000000180000000     kernel32:KERNEL32.dll
 0000:fffce000       .debug$S                   0000000180000000     kernel32:KERNEL32.dll
 0000:fffce000       .debug$S                   0000000180000000     kernel32:KERNEL32.dll
 0000:fffce000       .debug$S                   0000000180000000     kernel32:KERNEL32.dll
 0000:fffce000       .debug$S                   0000000180000000     kernel32:KERNEL32.dll
 0000:fffce000       .debug$S                   0000000180000000     kernel32:KERNEL32.dll
 0000:fffce000       .debug$S                   0000000180000000     kernel32:KERNEL32.dll
 0000:fffce000       .debug$S                   0000000180000000     kernel32:KERNEL32.dll
 0000:fffce000       .debug$S                   0000000180000000     kernel32:KERNEL32.dll
 0000:fffce000       .debug$S                   0000000180000000     kernel32:KERNEL32.dll
 0000:fffce000       .debug$S                   0000000180000000     kernel32:KERNEL32.dll
 0000:fffce000       .debug$S                   0000000180000000     kernel32:KERNEL32.dll
 0000:fffce000       .debug$S                   0000000180000000     kernel32:KERNEL32.dll
 0000:fffce000       .debug$S                   0000000180000000     kernel32:KERNEL32.dll
 0000:fffce000       .debug$S                   0000000180000000     kernel32:KERNEL32.dll
 0000:fffce000       .debug$S                   0000000180000000     kernel32:KERNEL32.dll
 0000:fffce000       .debug$S                   0000000180000000     kernel32:KERNEL32.dll
 0000:fffce000       .debug$S                   0000000180000000     kernel32:KERNEL32.dll
 0000:fffce000       .debug$S                   0000000180000000     kernel32:KERNEL32.dll
 0000:fffce000       .debug$S                   0000000180000000     kernel32:KERNEL32.dll
 0000:fffce000       .debug$S                   0000000180000000     kernel32:KERNEL32.dll
 0000:fffce000       .debug$S                   0000000180000000     kernel32:KERNEL32.dll
 0000:fffce000       .debug$S                   0000000180000000     kernel32:KERNEL32.dll
 0000:fffce000       .debug$S                   0000000180000000     kernel32:KERNEL32.dll
 0000:fffce000       .debug$S                   0000000180000000     kernel32:KERNEL32.dll
 0000:fffce000       .debug$S                   0000000180000000     kernel32:KERNEL32.dll
 0000:fffce000       .debug$S                   0000000180000000     kernel32:KERNEL32.dll
 0000:fffce000       .debug$S                   0000000180000000     kernel32:KERNEL32.dll
 0000:fffce000       .debug$S                   0000000180000000     kernel32:KERNEL32.dll
 0000:fffce000       .debug$S                   0000000180000000     kernel32:KERNEL32.dll
 0000:fffce000       .debug$S                   0000000180000000     kernel32:KERNEL32.dll
 0000:fffce000       .debug$S                   0000000180000000     kernel32:KERNEL32.dll
 0000:fffce000       .debug$S                   0000000180000000     kernel32:KERNEL32.dll
 0000:fffce000       .debug$S                   0000000180000000     kernel32:KERNEL32.dll
 0000:fffce000       .debug$S                   0000000180000000     kernel32:KERNEL32.dll
 0000:fffce000       .debug$S                   0000000180000000     kernel32:KERNEL32.dll
 0000:fffce000       .debug$S                   0000000180000000     kernel32:KERNEL32.dll
 0000:fffce000       .debug$S                   0000000180000000     kernel32:KERNEL32.dll
 0000:fffce000       .debug$S                   0000000180000000     kernel32:KERNEL32.dll
 0000:fffce000       .debug$S                   0000000180000000     kernel32:KERNEL32.dll
 0000:fffce000       .debug$S                   0000000180000000     kernel32:KERNEL32.dll
 0000:fffce000       .debug$S                   0000000180000000     kernel32:KERNEL32.dll
 0000:fffce000       .debug$S                   0000000180000000     kernel32:KERNEL32.dll
 0000:fffce000       .debug$S                   0000000180000000     kernel32:KERNEL32.dll
 0000:fffce000       .debug$S                   0000000180000000     kernel32:KERNEL32.dll
 0000:fffce000       .debug$S                   0000000180000000     kernel32:KERNEL32.dll
 0000:fffce000       .debug$S                   0000000180000000     kernel32:KERNEL32.dll
 0000:fffce000       .debug$S                   0000000180000000     kernel32:KERNEL32.dll
 0000:fffce000       .debug$S                   0000000180000000     kernel32:KERNEL32.dll
 0000:fffce000       .debug$S                   0000000180000000     kernel32:KERNEL32.dll
 0000:fffce000       .debug$S                   0000000180000000     kernel32:KERNEL32.dll
 0000:fffce000       .debug$S                   0000000180000000     kernel32:KERNEL32.dll
 0000:fffce000       .debug$S                   0000000180000000     kernel32:KERNEL32.dll
 0000:fffce000       .debug$S                   0000000180000000     kernel32:KERNEL32.dll
 0000:fffce000       .debug$S                   0000000180000000     kernel32:KERNEL32.dll
 0000:fffce000       .debug$S                   0000000180000000     kernel32:KERNEL32.dll
 0000:fffce000       .debug$S                   0000000180000000     kernel32:KERNEL32.dll
 0000:fffce000       .debug$S                   0000000180000000     kernel32:KERNEL32.dll
 0000:fffce000       .debug$S                   0000000180000000     kernel32:KERNEL32.dll
 0000:fffce000       .debug$S                   0000000180000000     kernel32:KERNEL32.dll
 0000:fffce000       .debug$S                   0000000180000000     kernel32:KERNEL32.dll
 0000:fffce000       .debug$S                   0000000180000000     kernel32:KERNEL32.dll
 0000:fffce000       .debug$S                   0000000180000000     kernel32:KERNEL32.dll
 0000:fffce000       .debug$S                   0000000180000000     kernel32:KERNEL32.dll
 0000:fffce000       .debug$S                   0000000180000000     kernel32:KERNEL32.dll
 0000:fffce000       .debug$S                   0000000180000000     kernel32:KERNEL32.dll
 0000:fffce000       .debug$S                   0000000180000000     kernel32:KERNEL32.dll
 0000:fffce000       .debug$S                   0000000180000000     kernel32:KERNEL32.dll
 0000:fffce000       .debug$S                   0000000180000000     kernel32:KERNEL32.dll
 0000:fffce000       .debug$S                   0000000180000000     kernel32:KERNEL32.dll
 0000:fffce000       .debug$S                   0000000180000000     kernel32:KERNEL32.dll
 0000:fffce000       .debug$S                   0000000180000000     kernel32:KERNEL32.dll
 0000:fffce000       .debug$S                   0000000180000000     kernel32:KERNEL32.dll
 0000:fffce000       .debug$S                   0000000180000000     kernel32:KERNEL32.dll
 0000:fffce000       .debug$S                   0000000180000000     kerberos.exp
 0000:fffce000       .debug$S                   0000000180000000     node:node.exe
 0000:fffce000       .debug$S                   0000000180000000     node:node.exe
 0000:fffce000       .debug$S                   0000000180000000     node:node.exe
 0000:fffce000       .debug$S                   0000000180000000     node:node.exe
 0000:fffce000       .debug$S                   0000000180000000     node:node.exe
 0000:fffce000       .debug$S                   0000000180000000     node:node.exe
 0000:fffce000       .debug$S                   0000000180000000     node:node.exe
 0000:fffce000       .debug$S                   0000000180000000     node:node.exe
 0000:fffce000       .debug$S                   0000000180000000     node:node.exe
 0000:fffce000       .debug$S                   0000000180000000     node:node.exe
 0000:fffce000       .debug$S                   0000000180000000     node:node.exe
 0000:fffce000       .debug$S                   0000000180000000     node:node.exe
 0000:fffce000       .debug$S                   0000000180000000     node:node.exe
 0000:fffce000       .debug$S                   0000000180000000     node:node.exe
 0000:fffce000       .debug$S                   0000000180000000     node:node.exe
 0000:fffce000       .debug$S                   0000000180000000     node:node.exe
 0000:fffce000       .debug$S                   0000000180000000     node:node.exe
 0000:fffce000       .debug$S                   0000000180000000     node:node.exe
 0000:fffce000       .debug$S                   0000000180000000     node:node.exe
 0000:fffce000       .debug$S                   0000000180000000     node:node.exe
 0000:fffce000       .debug$S                   0000000180000000     node:node.exe
 0000:fffce000       .debug$S                   0000000180000000     node:node.exe
 0000:fffce000       .debug$S                   0000000180000000     node:node.exe
 0000:fffce000       .debug$S                   0000000180000000     node:node.exe
 0000:fffce000       .debug$S                   0000000180000000     node:node.exe
 0000:fffce000       .debug$S                   0000000180000000     node:node.exe
 0000:fffce000       .debug$S                   0000000180000000     node:node.exe
 0000:fffce000       .debug$S                   0000000180000000     node:node.exe
 0000:fffce000       .debug$S                   0000000180000000     node:node.exe
 0000:fffce000       .debug$S                   0000000180000000     node:node.exe
 0000:fffce000       .debug$S                   0000000180000000     node:node.exe
 0000:fffce000       .debug$S                   0000000180000000     node:node.exe
 0000:fffce000       .debug$S                   0000000180000000     node:node.exe
 0000:fffce000       .debug$S                   0000000180000000     node:node.exe
 0000:fffce000       .debug$S                   0000000180000000     node:node.exe
 0000:fffce000       .debug$S                   0000000180000000     node:node.exe
 0000:fffce000       .debug$S                   0000000180000000     node:node.exe
 0000:fffce000       .debug$S                   0000000180000000     node:node.exe
 0000:fffce000       .debug$S                   0000000180000000     node:node.exe
 0000:fffce000       .debug$S                   0000000180000000     node:node.exe
 0000:fffce000       .debug$S                   0000000180000000     node:node.exe
 0000:fffce000       .debug$S                   0000000180000000     node:node.exe
 0000:fffce000       .debug$S                   0000000180000000     node:node.exe
 0000:fffce000       .debug$S                   0000000180000000     node:node.exe
 0000:fffce000       .debug$S                   0000000180000000     node:node.exe
 0000:fffce000       .debug$S                   0000000180000000     node:node.exe
 0000:fffce000       .debug$S                   0000000180000000     node:node.exe
 0000:fffce000       .debug$S                   0000000180000000     node:node.exe
 0000:fffce000       .debug$S                   0000000180000000     node:node.exe
 0000:fffce000       .debug$S                   0000000180000000     node:node.exe
 0000:fffce000       .debug$S                   0000000180000000     node:node.exe
 0000:fffce000       .debug$S                   0000000180000000     node:node.exe
 0000:fffce000       .debug$S                   0000000180000000     node:node.exe
 0000:fffce000       .debug$S                   0000000180000000     node:node.exe
 0000:fffce000       .debug$S                   0000000180000000     node:node.exe
 0000:fffce000       .debug$S                   0000000180000000     node:node.exe
 0000:fffce000       .debug$S                   0000000180000000     node:node.exe
 0000:fffce000       .debug$S                   0000000180000000     node:node.exe
 0000:fffce000       .debug$S                   0000000180000000     node:node.exe
 0000:fffce000       .debug$S                   0000000180000000     node:node.exe
 0000:fffce000       .debug$S                   0000000180000000     node:node.exe
 0000:fffce000       .debug$S                   0000000180000000     node:node.exe
 0000:fffce000       .debug$S                   0000000180000000     node:node.exe
 0000:fffce000       .debug$S                   0000000180000000     node:node.exe
 0000:fffce000       .debug$S                   0000000180000000     node:node.exe
 0000:fffce000       .debug$S                   0000000180000000     node:node.exe
 0000:fffce000       .debug$S                   0000000180000000     node:node.exe
 0000:fffce000       .debug$S                   0000000180000000     node:node.exe
 0000:fffce000       .debug$S                   0000000180000000     node:node.exe
 0000:fffce000       .debug$S                   0000000180000000     node:node.exe
 0000:fffce000       .debug$S                   0000000180000000     node:node.exe
 0000:fffce000       .debug$S                   0000000180000000     node:node.exe
 0000:fffce000       .debug$S                   0000000180000000     node:node.exe
 0000:fffce000       .debug$S                   0000000180000000     node:node.exe
 0000:fffce000       .debug$S                   0000000180000000     node:node.exe
 0000:fffce000       .debug$S                   0000000180000000     node:node.exe
 0000:fffce000       .debug$S                   0000000180000000     node:node.exe
 0000:fffce000       .debug$S                   0000000180000000     node:node.exe
 0000:fffce000       .debug$S                   0000000180000000     node:node.exe
 0000:fffce000       .debug$S                   0000000180000000     node:node.exe
 0000:fffce000       .debug$S                   0000000180000000     node:node.exe
 0000:fffce000       .debug$S                   0000000180000000     node:node.exe
 0000:fffce000       .debug$S                   0000000180000000     node:node.exe
 0000:fffce000       .debug$S                   0000000180000000     node:node.exe
 0000:fffce000       .debug$S                   0000000180000000     node:node.exe
 0000:fffce000       .debug$S                   0000000180000000     node:node.exe
 0000:fffce000       .debug$S                   0000000180000000     node:node.exe
 0000:fffce000       .debug$S                   0000000180000000     node:node.exe
 0000:fffce000       .debug$S                   0000000180000000     node:node.exe
 0000:fffce000       .debug$S                   0000000180000000     node:node.exe
 0000:fffce000       .debug$S                   0000000180000000     node:node.exe
 0000:fffce000       .debug$S                   0000000180000000     node:node.exe
 0000:fffce000       .debug$S                   0000000180000000     node:node.exe
 0000:fffce000       .debug$S                   0000000180000000     node:node.exe
 0000:fffce000       .debug$S                   0000000180000000     kernel32:KERNEL32.dll
 0001:00000000       ??__E?constructor_template@Kerberos@@2V?$Persistent@VFunctionTemplate@v8@@V?$NonCopyablePersistentTraits@VFunctionTemplate@v8@@@2@@Nan@@A@@YAXXZ 0000000180001000 f   kerberos.obj
 0001:00000020       ??__E?constructor_template@SecurityBuffer@@2V?$Persistent@VFunctionTemplate@v8@@V?$NonCopyablePersistentTraits@VFunctionTemplate@v8@@@2@@Nan@@A@@YAXXZ 0000000180001020 f   security_buffer.obj
 0001:00000040       ??__E?constructor_template@SecurityBufferDescriptor@@2V?$Persistent@VFunctionTemplate@v8@@V?$NonCopyablePersistentTraits@VFunctionTemplate@v8@@@2@@Nan@@A@@YAXXZ 0000000180001040 f   security_buffer_descriptor.obj
 0001:00000060       ??__E?constructor_template@SecurityContext@@2V?$Persistent@VFunctionTemplate@v8@@V?$NonCopyablePersistentTraits@VFunctionTemplate@v8@@@2@@Nan@@A@@YAXXZ 0000000180001060 f   security_context.obj
 0001:00000080       ??__E?constructor_template@SecurityCredentials@@2V?$Persistent@VFunctionTemplate@v8@@V?$NonCopyablePersistentTraits@VFunctionTemplate@v8@@@2@@Nan@@A@@YAXXZ 0000000180001080 f   security_credentials.obj
 0001:00000098       ??__E__badioinfo@@YAXXZ    0000000180001098 f   libappcrt:ioinit.obj
 0001:000000f0       ?FunctionCallbackWrapper@imp@Nan@@YAXAEBV?$FunctionCallbackInfo@VValue@v8@@@v8@@@Z 00000001800010f0 f   kerberos.obj
 0001:000008a0       _register_kerberos         00000001800018a0 f   kerberos.obj
 0001:00002200       ?GetterCallbackWrapper@imp@Nan@@YAXV?$Local@VName@v8@@@v8@@AEBV?$PropertyCallbackInfo@VValue@v8@@@4@@Z 0000000180003200 f   security_context.obj
 0001:00002500       ?Process@@YAXPEAUuv_work_s@@@Z 0000000180003500 f   security_context.obj
 0001:00002510       ?After@@YAXPEAUuv_work_s@@@Z 0000000180003510 f   security_context.obj
 0001:00002ac0       ?_initializeContext@@YAXPEAVWorker@@@Z 0000000180003ac0 f   security_context.obj
 0001:00002e30       ?_map_decryptMessage@@YA?AV?$Local@VValue@v8@@@v8@@PEAVWorker@@@Z 0000000180003e30 f   security_context.obj
 0001:00002e30       ?_map_initializeContextStep@@YA?AV?$Local@VValue@v8@@@v8@@PEAVWorker@@@Z 0000000180003e30 f   security_context.obj
 0001:00002e30       ?_map_encryptMessage@@YA?AV?$Local@VValue@v8@@@v8@@PEAVWorker@@@Z 0000000180003e30 f   security_context.obj
 0001:00002e30       ?_map_initializeContext@@YA?AV?$Local@VValue@v8@@@v8@@PEAVWorker@@@Z 0000000180003e30 f   security_context.obj
 0001:00003500       ?_initializeContextStep@@YAXPEAVWorker@@@Z 0000000180004500 f   security_context.obj
 0001:00003b00       ?_encryptMessage@@YAXPEAVWorker@@@Z 0000000180004b00 f   security_context.obj
 0001:00003ea0       ?_decryptMessage@@YAXPEAVWorker@@@Z 0000000180004ea0 f   security_context.obj
 0001:00004220       ?_queryContextAttributes@@YAXPEAVWorker@@@Z 0000000180005220 f   security_context.obj
 0001:000042b0       ?_map_queryContextAttributes@@YA?AV?$Local@VValue@v8@@@v8@@PEAVWorker@@@Z 00000001800052b0 f   security_context.obj
 0001:00004fd0       ?DisplaySECError@@YAPEADK@Z 0000000180005fd0 f   security_context.obj
 0001:00005120       ?_authSSPIAquire@@YAXPEAVWorker@@@Z 0000000180006120 f   security_credentials.obj
 0001:00005300       ?_map_authSSPIAquire@@YA?AV?$Local@VValue@v8@@@v8@@PEAVWorker@@@Z 0000000180006300 f   security_credentials.obj
 0001:00005bf0       ?DisplaySECError@@YAPEADK@Z 0000000180006bf0 f   security_credentials.obj
 0001:00006020       load_exe_hook              0000000180007020 f   win_delay_load_hook.obj
 0001:000064b0       $$000000                   00000001800074b0     LIBCMT:amdsecgs.obj
 0001:0000652c       ?dllmain_crt_dispatch@@YAHQEAUHINSTANCE__@@KQEAX@Z 000000018000752c f   LIBCMT:dll_dllmain.obj
 0001:0000657c       ?dllmain_crt_process_attach@@YAHQEAUHINSTANCE__@@QEAX@Z 000000018000757c f   LIBCMT:dll_dllmain.obj
 0001:000066cc       ?dllmain_crt_process_detach@@YAH_N@Z 00000001800076cc f   LIBCMT:dll_dllmain.obj
 0001:00006750       ?dllmain_dispatch@@YAHQEAUHINSTANCE__@@KQEAX@Z 0000000180007750 f   LIBCMT:dll_dllmain.obj
 0001:00007350       $$000000                   0000000180008350     libvcruntime:jmpuwind.obj
 0001:000073c4       ?try_get_function@@YAPEAXW4function_id@?A0x20227a44@@QEBDQEBW4module_id@2@2@Z 00000001800083c4 f   libvcruntime:winapi_downlevel.obj
 0001:00007a10       $$000000                   0000000180008a10     libvcruntime:memset.obj
 0001:00007bb5       MsetTab                    0000000180008bb5     libvcruntime:memset.obj
 0001:00007e84       ??$common_assert_to_message_box@_W@@YAXQEB_W0IQEAX@Z 0000000180008e84 f   libappcrt:assert.obj
 0001:00007f74       ??$common_assert_to_message_box_build_string@_W@@YAXQEA_W_KQEB_W2IQEAX@Z 0000000180008f74 f   libappcrt:assert.obj
 0001:00008794       ??$common_assert_to_stderr@_W@@YAXQEB_W0I@Z 0000000180009794 f   libappcrt:assert.obj
 0001:000089c0       ?common_onexit@@YAP6AHXZQEAU_onexit_table_t@@Q6AHXZ@Z 00000001800099c0 f   libappcrt:onexit.obj
 0001:00009318       ??R<lambda_8b97db1b1a74c9d5d2f05201ee762dcb>@@QEBAHXZ 000000018000a318 f   libappcrt:output.obj
 0001:00009408       ??R<lambda_c2e2a780365980b01940295d90109018>@@QEBAHXZ 000000018000a408 f   libappcrt:output.obj
 0001:0000c4b4       ?common_exit@@YAXHW4_crt_exit_cleanup_mode@@W4_crt_exit_return_mode@@@Z 000000018000d4b4 f   libappcrt:exit.obj
 0001:0000c624       ?try_cor_exit_process@@YAXI@Z 000000018000d624 f   libappcrt:exit.obj
 0001:0000c6b8       initialize_global_variables 000000018000d6b8 f   libappcrt:initialization.obj
 0001:0000c6cc       initialize_c               000000018000d6cc f   libappcrt:initialization.obj
 0001:0000c6f0       initialize_pointers        000000018000d6f0 f   libappcrt:initialization.obj
 0001:0000c73c       uninitialize_vcruntime     000000018000d73c f   libappcrt:initialization.obj
 0001:0000c744       uninitialize_allocated_memory 000000018000d744 f   libappcrt:initialization.obj
 0001:0000cc8c       write_string_to_console    000000018000dc8c f   libappcrt:report_runtime_error.obj
 0001:0000d1b4       ??$common_xtox@K_W@@YAHKQEA_W_KI_N@Z 000000018000e1b4 f   libappcrt:xtoa.obj
 0001:0000d260       ??$common_xtox_s@K_W@@YAHKQEA_W_KI_N@Z 000000018000e260 f   libappcrt:xtoa.obj
 0001:0000d33c       ??$message_box_wait_thread@_W@@YAKQEAX@Z 000000018000e33c f   libappcrt:crtmbox.obj
 0001:0000d3a4       ?get_message_box_pointers@@YAPEBUmessage_box_pointers@?A0x7bd314f8@@XZ 000000018000e3a4 f   libappcrt:crtmbox.obj
 0001:0000d54c       ?is_interactive@@YA?B_NQEBUmessage_box_pointers@?A0x7bd314f8@@@Z 000000018000e54c f   libappcrt:crtmbox.obj
 0001:0000d5f8       ?select_parent_window@@YAPEAUHWND__@@QEBUmessage_box_pointers@?A0x7bd314f8@@@Z 000000018000e5f8 f   libappcrt:crtmbox.obj
 0001:0000e0e8       get_or_load_module_handle  000000018000f0e8 f   libappcrt:winapi_nonmsdk.obj
 0001:0000e330       common_flush_all           000000018000f330 f   libappcrt:fflush.obj
 0001:0000e4d4       ??R<lambda_11f1b9fd45bbe0eb9ff4d0acb58976bf>@@QEBAHXZ 000000018000f4d4 f   libappcrt:setvbuf.obj
 0001:0000ea74       ?get_kernel32_module_handle@@YAPEAUHINSTANCE__@@XZ 000000018000fa74 f   libappcrt:winapi_downlevel.obj
 0001:0000f068       ?initialize_inherited_file_handles_nolock@@YAXXZ 0000000180010068 f   libappcrt:ioinit.obj
 0001:0000f160       ?initialize_stdio_handles_nolock@@YAXXZ 0000000180010160 f   libappcrt:ioinit.obj
 0001:0000f3b4       ?internal_isupper_l@@YA_NHQEAU__crt_locale_pointers@@@Z 00000001800103b4 f   libappcrt:tolower_toupper.obj
 0001:0000fd08       $LN188                     0000000180010d08     libappcrt:strtox.obj
 0001:0000fd30       $LN187                     0000000180010d30     libappcrt:strtox.obj
 0001:00010a2c       ?construct_ptd@@YAXQEAU__acrt_ptd@@QEAU__crt_locale_data@@@Z 0000000180011a2c f   libappcrt:per_thread_data.obj
 0001:00010ae0       ?destroy_ptd@@YAXQEAU__acrt_ptd@@@Z 0000000180011ae0 f   libappcrt:per_thread_data.obj
 0001:00010f44       ?fp_format_a@@YAHQEBNPEAD_KQEAD2H_NIQEAU__crt_locale_pointers@@@Z 0000000180011f44 f   libappcrt:cvt.obj
 0001:000112a4       ?fp_format_e@@YAHQEBNQEAD_K12H_NIQEAU__crt_locale_pointers@@@Z 00000001800122a4 f   libappcrt:cvt.obj
 0001:00011374       ?fp_format_e_internal@@YAHQEAD_KH_NIQEAU_strflt@@2QEAU__crt_locale_pointers@@@Z 0000000180012374 f   libappcrt:cvt.obj
 0001:00011550       ?fp_format_f_internal@@YAHQEADHQEAU_strflt@@_NQEAU__crt_locale_pointers@@@Z 0000000180012550 f   libappcrt:cvt.obj
 0001:00011698       ?fp_format_g@@YAHQEBNQEAD_K12H_NIQEAU__crt_locale_pointers@@@Z 0000000180012698 f   libappcrt:cvt.obj
 0001:000117cc       ?fp_format_nan_or_infinity@@YAHW4__acrt_fp_class@@_NPEAD_K1@Z 00000001800127cc f   libappcrt:cvt.obj
 0001:0001203c       ??R<lambda_4909cec072cc63abf853bb7ad6f5d02b>@@QEBAXXZ 000000018001303c f   libappcrt:mbctype.obj
 0001:0001223c       ?getSystemCP@@YAHH@Z       000000018001323c f   libappcrt:mbctype.obj
 0001:000122bc       ?setSBCS@@YAXPEAU__crt_multibyte_data@@@Z 00000001800132bc f   libappcrt:mbctype.obj
 0001:0001234c       ?setSBUpLow@@YAXPEAU__crt_multibyte_data@@@Z 000000018001334c f   libappcrt:mbctype.obj
 0001:00012530       ?setmbcp_internal@@YAHH_N@Z 0000000180013530 f   libappcrt:mbctype.obj
 0001:00012c74       ?write_double_translated_ansi_nolock@@YA?AUwrite_result@?A0x31df4182@@HQEBDI@Z 0000000180013c74 f   libappcrt:write.obj
 0001:00012e80       ?write_text_ansi_nolock@@YA?AUwrite_result@?A0x31df4182@@HQEBDI@Z 0000000180013e80 f   libappcrt:write.obj
 0001:00012f84       ?write_text_utf16le_nolock@@YA?AUwrite_result@?A0x31df4182@@HQEBDI@Z 0000000180013f84 f   libappcrt:write.obj
 0001:000130a0       ?write_text_utf8_nolock@@YA?AUwrite_result@?A0x31df4182@@HQEBDI@Z 00000001800140a0 f   libappcrt:write.obj
 0001:000136e4       ?GetTableIndexFromLocaleName@@YAHPEB_W@Z 00000001800146e4 f   libappcrt:lcidtoname_downlevel.obj
 0001:00013d8c       ?__acrt_LCMapStringA_stat@@YAHPEAU__crt_locale_pointers@@PEB_WKPEBDHPEADHHH@Z 0000000180014d8c f   libappcrt:LCMapStringA.obj
 0001:000141a0       ??$free_crt_array@_W$06@@YAXAEAY06PEA_W@Z 00000001800151a0 f   libappcrt:inittime.obj
 0001:000141a0       ??$free_crt_array@D$06@@YAXAEAY06PEAD@Z 00000001800151a0 f   libappcrt:inittime.obj
 0001:000141f8       ??$free_crt_array@D$0M@@@YAXAEAY0M@PEAD@Z 00000001800151f8 f   libappcrt:inittime.obj
 0001:000141f8       ??$free_crt_array@_W$0M@@@YAXAEAY0M@PEA_W@Z 00000001800151f8 f   libappcrt:inittime.obj
 0001:000168d0       memcpy_s                   00000001800178d0 f   libappcrt:cfout.obj
 0001:00016958       ??$write_buffer_nolock@D@@YA_NDV__crt_stdio_stream@@@Z 0000000180017958 f   libappcrt:_flsbuf.obj
 0001:00016a60       ??$write_buffer_nolock@_W@@YA_N_WV__crt_stdio_stream@@@Z 0000000180017a60 f   libappcrt:_flsbuf.obj
 0001:00016dd4       ??$common_lseek@_J@@YA_JH_JH@Z 0000000180017dd4 f   libappcrt:lseek.obj
 0001:00016ee0       ??$common_lseek_nolock@_J@@YA_JH_JH@Z 0000000180017ee0 f   libappcrt:lseek.obj
 0001:00017320       $$000000                   0000000180018320     libappcrt:log10.obj
 0001:00017a88       common_control87           0000000180018a88 f   libappcrt:ieee.obj
 0001:00017d18       _call_matherr              0000000180018d18 f   libappcrt:libm_error.obj
 0001:00017d80       _exception_enabled         0000000180018d80 f   libappcrt:libm_error.obj
 0001:00017fe4       _log_special_common        0000000180018fe4 f   libappcrt:log_special.obj
 0001:00018080       $$000000                   0000000180019080     libappcrt:fpsr.obj
 0001:00018510       ??$common_initialize_environment_nolock@D@@YAHXZ 0000000180019510 f   libdesktopcrt:environment_initialization.obj
 0001:0001857c       ??$create_environment@D@@YAQEAPEADQEAD@Z 000000018001957c f   libdesktopcrt:environment_initialization.obj
 0001:00018678       ??$free_environment@_W@@YAXQEAPEA_W@Z 0000000180019678 f   libdesktopcrt:environment_initialization.obj
 0001:00018678       ??$free_environment@D@@YAXQEAPEAD@Z 0000000180019678 f   libdesktopcrt:environment_initialization.obj
 0001:000186bc       ??$uninitialize_environment_internal@D@@YAXAEAPEAPEAD@Z 00000001800196bc f   libdesktopcrt:environment_initialization.obj
 0001:000186d8       ??$uninitialize_environment_internal@_W@@YAXAEAPEAPEA_W@Z 00000001800196d8 f   libdesktopcrt:environment_initialization.obj
 0001:00018764       uninitialize_global_state_isolation 0000000180019764 f   libdesktopcrt:initialization.obj
 0001:00018764       initialize_global_state_isolation 0000000180019764 f   libdesktopcrt:initialization.obj
 0001:00018764       report_memory_leaks        0000000180019764 f   libdesktopcrt:initialization.obj
 0001:00018764       uninitialize_c             0000000180019764 f   libdesktopcrt:initialization.obj
 0001:000191f0       $$000000                   000000018001a1f0     LIBCMT:chkstk.obj
 0001:00019260       $$000000                   000000018001a260     libvcruntime:memcpy.obj
 0001:00019350       MoveSmall                  000000018001a350     libvcruntime:memcpy.obj
 0001:00019870       $$000000                   000000018001a870     libvcruntime:memcmp.obj
 0001:00019a90       $$000000                   000000018001aa90     LIBCMT:guard_dispatch.obj
 0001:00019ab0       ?fin$0@?0??dllmain_crt_process_attach@@YAHQEAUHINSTANCE__@@QEAX@Z@4HA 000000018001aab0 f   LIBCMT:dll_dllmain.obj
 0001:00019ac9       ?fin$0@?0??dllmain_crt_process_detach@@YAH_N@Z@4HA 000000018001aac9 f   LIBCMT:dll_dllmain.obj
 0001:00019ae5       ?filt$0@?0??dllmain_dispatch@@YAHQEAUHINSTANCE__@@KQEAX@Z@4HA 000000018001aae5 f   LIBCMT:dll_dllmain.obj
 0001:00019b1b       __scrt_is_nonwritable_in_current_image$filt$0 000000018001ab1b f   LIBCMT:utility.obj
 0001:00019b33       ?fin$0@?0??common_onexit@@YAP6AHXZQEAU_onexit_table_t@@Q6AHXZ@Z@4HA 000000018001ab33 f   libappcrt:onexit.obj
 0001:00019b4c       _query_new_handler$fin$0   000000018001ab4c f   libappcrt:new_handler.obj
 0001:00019b62       ?filt$0@?0??common_exit@@YAXHW4_crt_exit_cleanup_mode@@W4_crt_exit_return_mode@@@Z@4HA 000000018001ab62 f   libappcrt:exit.obj
 0001:00019b8f       ?fin$1@?0??common_exit@@YAXHW4_crt_exit_cleanup_mode@@W4_crt_exit_return_mode@@@Z@4HA 000000018001ab8f f   libappcrt:exit.obj
 0001:00019ba8       common_flush_all$fin$0     000000018001aba8 f   libappcrt:fflush.obj
 0001:00019bc2       common_flush_all$fin$1     000000018001abc2 f   libappcrt:fflush.obj
 0001:00019bdb       fflush$fin$0               000000018001abdb f   libappcrt:fflush.obj
 0001:00019bdb       fclose$fin$0               000000018001abdb f   libappcrt:fflush.obj
 0001:00019bf3       ?fin$0@?0???$?RV<lambda_375f2059ece04f1a3491234976883daf>@@AEAV<lambda_8b97db1b1a74c9d5d2f05201ee762dcb>@@V<lambda_d91a30588a32db60f761b18b0c09ab11>@@@?$__crt_seh_guarded_call@H@@QEAAH$$QEAV<lambda_375f2059ece04f1a3491234976883daf>@@AEAV<lambda_8b97db1b1a74c9d5d2f05201ee762dcb>@@$$QEAV<lambda_d91a30588a32db60f761b18b0c09ab11>@@@Z@4HA 000000018001abf3 f   libappcrt:setvbuf.obj
 0001:00019bf3       ?fin$0@?0???$?RV<lambda_f44018d659a65f962de91447066bfbb0>@@AEAV<lambda_c2e2a780365980b01940295d90109018>@@V<lambda_7f98fe85b6c52e814278db065628b656>@@@?$__crt_seh_guarded_call@H@@QEAAH$$QEAV<lambda_f44018d659a65f962de91447066bfbb0>@@AEAV<lambda_c2e2a780365980b01940295d90109018>@@$$QEAV<lambda_7f98fe85b6c52e814278db065628b656>@@@Z@4HA 000000018001abf3 f   libappcrt:setvbuf.obj
 0001:00019bf3       ?fin$0@?0???$?RV<lambda_748170f0745e8ff1df7bb43bcbf3b33d>@@AEAV<lambda_11f1b9fd45bbe0eb9ff4d0acb58976bf>@@V<lambda_17683df6366aaadc43f3d402e9bdd393>@@@?$__crt_seh_guarded_call@H@@QEAAH$$QEAV<lambda_748170f0745e8ff1df7bb43bcbf3b33d>@@AEAV<lambda_11f1b9fd45bbe0eb9ff4d0acb58976bf>@@$$QEAV<lambda_17683df6366aaadc43f3d402e9bdd393>@@@Z@4HA 000000018001abf3 f   libappcrt:setvbuf.obj
 0001:00019c0e       __acrt_get_sigabrt_handler$fin$0 000000018001ac0e f   libappcrt:signal.obj
 0001:00019c29       raise$fin$0                000000018001ac29 f   libappcrt:signal.obj
 0001:00019c4a       _fcloseall$fin$0           000000018001ac4a f   libappcrt:closeall.obj
 0001:00019c63       __acrt_initialize_lowio$fin$0 000000018001ac63 f   libappcrt:ioinit.obj
 0001:00019c7e       __acrt_uninitialize_locale$fin$0 000000018001ac7e f   libappcrt:wsetlocale.obj
 0001:00019c7e       __acrt_update_thread_locale_data$fin$0 000000018001ac7e f   libappcrt:wsetlocale.obj
 0001:00019c97       ?fin$1@?0??construct_ptd@@YAXQEAU__acrt_ptd@@QEAU__crt_locale_data@@@Z@4HA 000000018001ac97 f   libappcrt:per_thread_data.obj
 0001:00019c97       ?fin$1@?0??destroy_ptd@@YAXQEAU__acrt_ptd@@@Z@4HA 000000018001ac97 f   libappcrt:per_thread_data.obj
 0001:00019cb0       ?fin$0@?0??construct_ptd@@YAXQEAU__acrt_ptd@@QEAU__crt_locale_data@@@Z@4HA 000000018001acb0 f   libappcrt:per_thread_data.obj
 0001:00019cb0       ?fin$0@?0??destroy_ptd@@YAXQEAU__acrt_ptd@@@Z@4HA 000000018001acb0 f   libappcrt:per_thread_data.obj
 0001:00019cc9       ?fin$0@?0???$?RV<lambda_ac7773736e81d5faf930c0e5de6ba98a>@@AEAV<lambda_4909cec072cc63abf853bb7ad6f5d02b>@@V<lambda_0d0f2b3334941ad2ab7cbf11e6f8125e>@@@?$__crt_seh_guarded_call@X@@QEAAX$$QEAV<lambda_ac7773736e81d5faf930c0e5de6ba98a>@@AEAV<lambda_4909cec072cc63abf853bb7ad6f5d02b>@@$$QEAV<lambda_0d0f2b3334941ad2ab7cbf11e6f8125e>@@@Z@4HA 000000018001acc9 f   libappcrt:mbctype.obj
 0001:00019ce3       __acrt_update_thread_multibyte_data$fin$0 000000018001ace3 f   libappcrt:mbctype.obj
 0001:00019cfc       _write$fin$0               000000018001acfc f   libappcrt:write.obj
 0001:00019cfc       ?fin$0@?0???$common_lseek@_J@@YA_JH_JH@Z@4HA 000000018001acfc f   libappcrt:write.obj
 0001:00019d15       __acrt_lowio_ensure_fh_exists$fin$0 000000018001ad15 f   libappcrt:osfinfo.obj
 0001:00019d2e       ?fin$0@?0???$?RV<lambda_d17ac63b517632fdc8df1c31ffa76819>@@AEAV<lambda_b808959b143381ef4fbd2e2a6d0713c5>@@V<lambda_bc395a1919b252af978e71f59923aa8a>@@@?$__crt_seh_guarded_call@H@@QEAAH$$QEAV<lambda_d17ac63b517632fdc8df1c31ffa76819>@@AEAV<lambda_b808959b143381ef4fbd2e2a6d0713c5>@@$$QEAV<lambda_bc395a1919b252af978e71f59923aa8a>@@@Z@4HA 000000018001ad2e f   libappcrt:close.obj
 0001:00019d2e       ?fin$0@?0???$?RV<lambda_ad0d618f8fc7178cbb9b4cac8054c445>@@AEAV<lambda_1307520d4d13bf9de0f9297d24bd96f6>@@V<lambda_c928f5e71c1aebcb9e89b1d1406cd29d>@@@?$__crt_seh_guarded_call@H@@QEAAH$$QEAV<lambda_ad0d618f8fc7178cbb9b4cac8054c445>@@AEAV<lambda_1307520d4d13bf9de0f9297d24bd96f6>@@$$QEAV<lambda_c928f5e71c1aebcb9e89b1d1406cd29d>@@@Z@4HA 000000018001ad2e f   libappcrt:close.obj
 0001:00019d48       common_control87$filt$0    000000018001ad48 f   libappcrt:fpctrl.obj
 0001:00019d48       _ctrlfp$filt$0             000000018001ad48 f   libappcrt:fpctrl.obj
 0001:00019d80       _IsNonwritableInCurrentImage$filt$0 000000018001ad80 f   LIBCMT:pesect.obj
 0001:00019da0       ??__F?constructor_template@Kerberos@@2V?$Persistent@VFunctionTemplate@v8@@V?$NonCopyablePersistentTraits@VFunctionTemplate@v8@@@2@@Nan@@A@@YAXXZ 000000018001ada0 f   kerberos.obj
 0001:00019db0       ??__F?constructor_template@SecurityBuffer@@2V?$Persistent@VFunctionTemplate@v8@@V?$NonCopyablePersistentTraits@VFunctionTemplate@v8@@@2@@Nan@@A@@YAXXZ 000000018001adb0 f   security_buffer.obj
 0001:00019dc0       ??__F?constructor_template@SecurityBufferDescriptor@@2V?$Persistent@VFunctionTemplate@v8@@V?$NonCopyablePersistentTraits@VFunctionTemplate@v8@@@2@@Nan@@A@@YAXXZ 000000018001adc0 f   security_buffer_descriptor.obj
 0001:00019dd0       ??__F?constructor_template@SecurityContext@@2V?$Persistent@VFunctionTemplate@v8@@V?$NonCopyablePersistentTraits@VFunctionTemplate@v8@@@2@@Nan@@A@@YAXXZ 000000018001add0 f   security_context.obj
 0001:00019de0       ??__F?constructor_template@SecurityCredentials@@2V?$Persistent@VFunctionTemplate@v8@@V?$NonCopyablePersistentTraits@VFunctionTemplate@v8@@@2@@Nan@@A@@YAXXZ 000000018001ade0 f   security_credentials.obj
 0002:00000248       ?__badioinfo$initializer$@@3P6AXXZEA 000000018001b248     libappcrt:ioinit.obj
 0002:00000250       ??constructor_template$initializer$@Kerberos@@2P6AXXZEA@@3P6AXXZEA 000000018001b250     kerberos.obj
 0002:00000258       ??constructor_template$initializer$@SecurityBuffer@@2P6AXXZEA@@3P6AXXZEA 000000018001b258     security_buffer.obj
 0002:00000260       ??constructor_template$initializer$@SecurityBufferDescriptor@@2P6AXXZEA@@3P6AXXZEA 000000018001b260     security_buffer_descriptor.obj
 0002:00000268       ??constructor_template$initializer$@SecurityContext@@2P6AXXZEA@@3P6AXXZEA 000000018001b268     security_context.obj
 0002:00000270       ??constructor_template$initializer$@SecurityCredentials@@2P6AXXZEA@@3P6AXXZEA 000000018001b270     security_credentials.obj
 0002:00000348       GS_ExceptionPointers       000000018001b348     LIBCMT:gs_report.obj
 0002:000003f0       ?module_names@?A0x20227a44@@3QBQEB_WB 000000018001b3f0     libvcruntime:winapi_downlevel.obj
 0002:000004a0       ?candidate_modules@?1??try_get_FlsAlloc@@YAP6AKP6AXPEAX@Z@ZXZ@4QBW4module_id@?A0x20227a44@@B 000000018001b4a0     libvcruntime:winapi_downlevel.obj
 0002:000004b8       ?candidate_modules@?1??try_get_FlsFree@@YAP6AHK@ZXZ@4QBW4module_id@?A0x20227a44@@B 000000018001b4b8     libvcruntime:winapi_downlevel.obj
 0002:000004c8       ?candidate_modules@?1??try_get_FlsGetValue@@YAP6APEAXK@ZXZ@4QBW4module_id@?A0x20227a44@@B 000000018001b4c8     libvcruntime:winapi_downlevel.obj
 0002:000004e0       ?candidate_modules@?1??try_get_FlsSetValue@@YAP6AHKPEAX@ZXZ@4QBW4module_id@?A0x20227a44@@B 000000018001b4e0     libvcruntime:winapi_downlevel.obj
 0002:000004f8       ?candidate_modules@?1??try_get_InitializeCriticalSectionEx@@YAP6AHPEAU_RTL_CRITICAL_SECTION@@KK@ZXZ@4QBW4module_id@?A0x20227a44@@B 000000018001b4f8     libvcruntime:winapi_downlevel.obj
 0002:00000520       ?ExceptionTemplate@?1??_CxxThrowException@@9@4UEHExceptionRecord@@B 000000018001b520     libvcruntime:throw.obj
 0002:00000560       ?tokenTable@@3QBQEBDB      000000018001b560     libvcruntime:undname.obj
 0002:000005d0       ?nameTable@@3QBQEBDB       000000018001b5d0     libvcruntime:undname.obj
 0002:00000858       ?rttiTable@@3QBQEBDB       000000018001b858     libvcruntime:undname.obj
 0002:00001360       __acrt_initializers        000000018001c360     libappcrt:initialization.obj
 0002:00001440       runtime_errors             000000018001c440     libappcrt:report_runtime_error.obj
 0002:00001af0       ?module_names@?A0x891f1d45@@3QBQEB_WB 000000018001caf0     libappcrt:winapi_nonmsdk.obj
 0002:00002330       _first_127char             000000018001d330     libappcrt:wsetlocale.obj
 0002:000027c0       ?_mb_locale_names@@3QBQEB_WB 000000018001d7c0     libappcrt:mbctype.obj
 0002:000028a0       ?LocaleNameToIndexTable@?A0x9229048d@@3QBULocaleNameIndex@1@B 000000018001d8a0     libappcrt:lcidtoname_downlevel.obj
 0002:000036e0       ?LcidToLocaleNameTable@?A0x9229048d@@3QBULcidToLocaleName@1@B 000000018001e6e0     libappcrt:lcidtoname_downlevel.obj
 0002:00007cd0       __real_ninf                0000000180022cd0     libappcrt:log10.obj
 0002:00007ce0       __real_inf                 0000000180022ce0     libappcrt:log10.obj
 0002:00007cf0       __real_neg_qnan            0000000180022cf0     libappcrt:log10.obj
 0002:00007d00       __real_qnanbit             0000000180022d00     libappcrt:log10.obj
 0002:00007d10       __int_1023                 0000000180022d10     libappcrt:log10.obj
 0002:00007d20       __mask_001                 0000000180022d20     libappcrt:log10.obj
 0002:00007d30       __mask_mant                0000000180022d30     libappcrt:log10.obj
 0002:00007d40       __mask_mant_top8           0000000180022d40     libappcrt:log10.obj
 0002:00007d50       __mask_mant9               0000000180022d50     libappcrt:log10.obj
 0002:00007d60       __real_log10_e             0000000180022d60     libappcrt:log10.obj
 0002:00007d70       __real_log10_e_lead        0000000180022d70     libappcrt:log10.obj
 0002:00007d80       __real_log10_e_tail        0000000180022d80     libappcrt:log10.obj
 0002:00007d90       __real_log10_2_lead        0000000180022d90     libappcrt:log10.obj
 0002:00007da0       __real_log10_2_tail        0000000180022da0     libappcrt:log10.obj
 0002:00007db0       __real_two                 0000000180022db0     libappcrt:log10.obj
 0002:00007dc0       __real_one                 0000000180022dc0     libappcrt:log10.obj
 0002:00007dd0       __real_half                0000000180022dd0     libappcrt:log10.obj
 0002:00007de0       __mask_100                 0000000180022de0     libappcrt:log10.obj
 0002:00007df0       __real_1_over_512          0000000180022df0     libappcrt:log10.obj
 0002:00007e00       __real_1_over_2            0000000180022e00     libappcrt:log10.obj
 0002:00007e10       __real_1_over_3            0000000180022e10     libappcrt:log10.obj
 0002:00007e20       __real_1_over_4            0000000180022e20     libappcrt:log10.obj
 0002:00007e30       __real_1_over_5            0000000180022e30     libappcrt:log10.obj
 0002:00007e40       __real_1_over_6            0000000180022e40     libappcrt:log10.obj
 0002:00007e50       __real_neg_1023            0000000180022e50     libappcrt:log10.obj
 0002:00007e60       __mask_2045                0000000180022e60     libappcrt:log10.obj
 0002:00007e70       __real_threshold           0000000180022e70     libappcrt:log10.obj
 0002:00007e80       __real_near_one_lt         0000000180022e80     libappcrt:log10.obj
 0002:00007e90       __real_near_one_gt         0000000180022e90     libappcrt:log10.obj
 0002:00007ea0       __real_min_norm            0000000180022ea0     libappcrt:log10.obj
 0002:00007eb0       __real_notsign             0000000180022eb0     libappcrt:log10.obj
 0002:00007ec0       __real_ca1                 0000000180022ec0     libappcrt:log10.obj
 0002:00007ed0       __real_ca2                 0000000180022ed0     libappcrt:log10.obj
 0002:00007ee0       __real_ca3                 0000000180022ee0     libappcrt:log10.obj
 0002:00007ef0       __real_ca4                 0000000180022ef0     libappcrt:log10.obj
 0002:00007f00       __mask_lower               0000000180022f00     libappcrt:log10.obj
 0002:00007f10       __flag_x_zero              0000000180022f10     libappcrt:log10.obj
 0002:00007f14       __flag_x_neg               0000000180022f14     libappcrt:log10.obj
 0002:00007f18       __flag_x_nan               0000000180022f18     libappcrt:log10.obj
 0002:00009760       __real@433fffffffffffff    0000000180024760     libappcrt:fpsr.obj
 0002:00009768       __real@c33fffffffffffff    0000000180024768     libappcrt:fpsr.obj
 0002:00009ba0       basis_64                   0000000180024ba0     base64.obj
 0002:00009bf0       index_64                   0000000180024bf0     base64.obj
 0002:0000b3b0       $unwind$?FunctionCallbackWrapper@imp@Nan@@YAXAEBV?$FunctionCallbackInfo@VValue@v8@@@v8@@@Z 00000001800263b0     kerberos.obj
 0002:0000b3c0       $unwind$?New@?$Factory@VFunctionTemplate@v8@@@imp@Nan@@SA?AV?$Local@VFunctionTemplate@v8@@@v8@@P6AXAEBV?$FunctionCallbackInfo@VValue@v8@@@3@@ZV?$Local@VValue@v8@@@5@V?$Local@VSignature@v8@@@5@@Z 00000001800263c0     kerberos.obj
 0002:0000b3cc       $chain$0$?New@?$Factory@VFunctionTemplate@v8@@@imp@Nan@@SA?AV?$Local@VFunctionTemplate@v8@@@v8@@P6AXAEBV?$FunctionCallbackInfo@VValue@v8@@@3@@ZV?$Local@VValue@v8@@@5@V?$Local@VSignature@v8@@@5@@Z 00000001800263cc     kerberos.obj
 0002:0000b3e0       $chain$1$?New@?$Factory@VFunctionTemplate@v8@@@imp@Nan@@SA?AV?$Local@VFunctionTemplate@v8@@@v8@@P6AXAEBV?$FunctionCallbackInfo@VValue@v8@@@3@@ZV?$Local@VValue@v8@@@5@V?$Local@VSignature@v8@@@5@@Z 00000001800263e0     kerberos.obj
 0002:0000b3f0       $unwind$??$free_environment@D@@YAXQEAPEAD@Z 00000001800263f0     libdesktopcrt:environment_initialization.obj
 0002:0000b3f0       $unwind$??$free_environment@_W@@YAXQEAPEA_W@Z 00000001800263f0     libdesktopcrt:environment_initialization.obj
 0002:0000b3f0       $unwind$?Wrap@ObjectWrap@Nan@@IEAAXV?$Local@VObject@v8@@@v8@@@Z 00000001800263f0     kerberos.obj
 0002:0000b3fc       $unwind$__vcrt_FlsGetValue 00000001800263fc     libvcruntime:winapi_downlevel.obj
 0002:0000b3fc       $unwind$__acrt_update_locale_info 00000001800263fc     libappcrt:locale_update.obj
 0002:0000b3fc       $unwind$?validate_stream_is_ansi_if_required@?$__acrt_stdio_char_traits@D@@SA_NQEAU_iobuf@@@Z 00000001800263fc     libappcrt:output.obj
 0002:0000b3fc       $unwind$??0?$output_processor@_WV?$stream_output_adapter@_W@__crt_stdio_output@@V?$standard_base@_WV?$stream_output_adapter@_W@__crt_stdio_output@@@2@@__crt_stdio_output@@QEAA@AEBV?$stream_output_adapter@_W@1@_KQEB_WQEAU__crt_locale_pointers@@QEAD@Z 00000001800263fc     libappcrt:output.obj
 0002:0000b3fc       $unwind$__vcrt_cleanup_type_info_names 00000001800263fc     libvcruntime:std_type_info.obj
 0002:0000b3fc       $unwind$??0?$output_processor@DV?$stream_output_adapter@D@__crt_stdio_output@@V?$standard_base@DV?$stream_output_adapter@D@__crt_stdio_output@@@2@@__crt_stdio_output@@QEAA@AEBV?$stream_output_adapter@D@1@_KQEBDQEAU__crt_locale_pointers@@QEAD@Z 00000001800263fc     libappcrt:output.obj
 0002:0000b3fc       $unwind$_malloc_base       00000001800263fc     libappcrt:malloc_base.obj
 0002:0000b3fc       $unwind$__acrt_update_multibyte_info 00000001800263fc     libappcrt:locale_update.obj
 0002:0000b3fc       $unwind$__std_exception_destroy 00000001800263fc     libvcruntime:std_exception.obj
 0002:0000b3fc       $unwind$__acrt_fp_strflt_to_string 00000001800263fc     libappcrt:_fptostr.obj
 0002:0000b3fc       $unwind$__vcrt_TerminateProcess 00000001800263fc     libvcruntime:winapi_downlevel.obj
 0002:0000b3fc       $unwind$__acrt_UnhandledException 00000001800263fc     libappcrt:winapi_downlevel.obj
 0002:0000b3fc       $unwind$??_GWorker@@UEAAPEAXI@Z 00000001800263fc     worker.obj
 0002:0000b3fc       $unwind$__vcrt_UnhandledException 00000001800263fc     libvcruntime:winapi_downlevel.obj
 0002:0000b3fc       $unwind$__vcrt_freeptd     00000001800263fc     libvcruntime:per_thread_data.obj
 0002:0000b3fc       $unwind$__vcrt_FlsFree     00000001800263fc     libvcruntime:winapi_downlevel.obj
 0002:0000b3fc       $unwind$strcpy_s           00000001800263fc     libappcrt:strcpy_s.obj
 0002:0000b3fc       $unwind$_callnewh          00000001800263fc     libappcrt:new_handler.obj
 0002:0000b3fc       $unwind$?_map_authSSPIAquire@@YA?AV?$Local@VValue@v8@@@v8@@PEAVWorker@@@Z 00000001800263fc     security_credentials.obj
 0002:0000b3fc       $unwind$__acrt_invoke_user_matherr 00000001800263fc     libappcrt:matherr.obj
 0002:0000b3fc       $unwind$_calloc_base       00000001800263fc     libappcrt:calloc_base.obj
 0002:0000b3fc       $unwind$?New@SecurityCredentials@@CAXAEBV?$FunctionCallbackInfo@VValue@v8@@@Nan@@@Z 00000001800263fc     security_credentials.obj
 0002:0000b3fc       $unwind$__acrt_initialize_locks 00000001800263fc     libappcrt:locks.obj
 0002:0000b3fc       $unwind$__acrt_uninitialize_locks 00000001800263fc     libappcrt:locks.obj
 0002:0000b3fc       $unwind$load_exe_hook      00000001800263fc     win_delay_load_hook.obj
 0002:0000b3fc       $unwind$?Ref@ObjectWrap@Nan@@MEAAXXZ 00000001800263fc     kerberos.obj
 0002:0000b3fc       $unwind$__vcrt_initialize_locks 00000001800263fc     libvcruntime:locks.obj
 0002:0000b3fc       $unwind$__acrt_freeptd     00000001800263fc     libappcrt:per_thread_data.obj
 0002:0000b3fc       $unwind$__acrt_stdio_allocate_buffer_nolock 00000001800263fc     libappcrt:_getbuf.obj
 0002:0000b3fc       $unwind$__vcrt_uninitialize_locks 00000001800263fc     libvcruntime:locks.obj
 0002:0000b3fc       $unwind$?state_case_normal_common@?$output_processor@DV?$stream_output_adapter@D@__crt_stdio_output@@V?$standard_base@DV?$stream_output_adapter@D@__crt_stdio_output@@@2@@__crt_stdio_output@@AEAA_NXZ 00000001800263fc     libappcrt:output.obj
 0002:0000b3fc       $unwind$??0?$output_processor@_WV?$string_output_adapter@_W@__crt_stdio_output@@V?$standard_base@_WV?$string_output_adapter@_W@__crt_stdio_output@@@2@@__crt_stdio_output@@QEAA@AEBV?$string_output_adapter@_W@1@_KQEB_WQEAU__crt_locale_pointers@@QEAD@Z 00000001800263fc     libappcrt:output.obj
 0002:0000b3fc       $unwind$?DloadAcquireSectionWriteAccess@@YAXXZ 00000001800263fc     DelayImp:delayhlp.obj
 0002:0000b3fc       $unwind$?New@Kerberos@@CAXAEBV?$FunctionCallbackInfo@VValue@v8@@@Nan@@@Z 00000001800263fc     kerberos.obj
 0002:0000b3fc       $unwind$??1SecurityContext@@UEAA@XZ 00000001800263fc     security_context.obj
 0002:0000b3fc       $unwind$_clearfp           00000001800263fc     libappcrt:ieee.obj
 0002:0000b3fc       $unwind$__vcrt_getptd      00000001800263fc     libvcruntime:per_thread_data.obj
 0002:0000b3fc       $unwind$__scrt_uninitialize_crt 00000001800263fc     LIBCMT:utility_static.obj
 0002:0000b3fc       $unwind$__scrt_initialize_crt 00000001800263fc     LIBCMT:utility_static.obj
 0002:0000b3fc       $unwind$fegetenv           00000001800263fc     libappcrt:fegetenv.obj
 0002:0000b3fc       $unwind$feholdexcept       00000001800263fc     libappcrt:feholdexcept.obj
 0002:0000b3fc       $unwind$fesetenv           00000001800263fc     libappcrt:fesetenv.obj
 0002:0000b3fc       $unwind$??1SecurityBuffer@@UEAA@XZ 00000001800263fc     security_buffer.obj
 0002:0000b3fc       $unwind$?WeakCallback@ObjectWrap@Nan@@CAXAEBV?$WeakCallbackInfo@VObjectWrap@Nan@@@v8@@@Z 00000001800263fc     kerberos.obj
 0002:0000b3fc       $unwind$uninitialize_allocated_memory 00000001800263fc     libappcrt:initialization.obj
 0002:0000b3fc       $unwind$__acrt_uninitialize_rand_s 00000001800263fc     libappcrt:rand_s.obj
 0002:0000b3fc       $unwind$initialize_pointers 00000001800263fc     libappcrt:initialization.obj
 0002:0000b3fc       $unwind$?try_cor_exit_process@@YAXI@Z 00000001800263fc     libappcrt:exit.obj
 0002:0000b3fc       $unwind$__vcrt_FlsAlloc    00000001800263fc     libvcruntime:winapi_downlevel.obj
 0002:0000b3fc       $unwind$tolower            00000001800263fc     libappcrt:tolower_toupper.obj
 0002:0000b3fc       $unwind$??0bad_array_new_length@std@@QEAA@AEBV01@@Z 00000001800263fc     LIBCMT:throw_bad_alloc.obj
 0002:0000b3fc       $unwind$_set_statfp        00000001800263fc     libappcrt:fpctrl.obj
 0002:0000b3fc       $unwind$__acrt_uninitialize_stdio 00000001800263fc     libappcrt:_file.obj
 0002:0000b3fc       $unwind$??0bad_alloc@std@@QEAA@AEBV01@@Z 00000001800263fc     LIBCMT:throw_bad_alloc.obj
 0002:0000b3fc       $unwind$??0exception@std@@QEAA@AEBV01@@Z 00000001800263fc     LIBCMT:throw_bad_alloc.obj
 0002:0000b3fc       $unwind$?Unref@ObjectWrap@Nan@@MEAAXXZ 00000001800263fc     kerberos.obj
 0002:0000b3fc       $unwind$??2@YAPEAX_K@Z     00000001800263fc     LIBCMT:new_scalar.obj
 0002:0000b3fc       $unwind$wcscpy_s           00000001800263fc     libappcrt:wcscpy_s.obj
 0002:0000b3fc       $unwind$__acrt_TerminateProcess 00000001800263fc     libappcrt:winapi_downlevel.obj
 0002:0000b3fc       $unwind$??_Gtype_info@@UEAAPEAXI@Z 00000001800263fc     LIBCMT:std_type_info_static.obj
 0002:0000b3fc       $unwind$wcscat_s           00000001800263fc     libappcrt:wcscat_s.obj
 0002:0000b3fc       $unwind$_clrfp             00000001800263fc     libappcrt:fpctrl.obj
 0002:0000b3fc       $unwind$__GSHandlerCheckCommon 00000001800263fc     LIBCMT:gshandler.obj
 0002:0000b3fc       $unwind$_initialize_onexit_table 00000001800263fc     libappcrt:onexit.obj
 0002:0000b404       $unwind$??_GSecurityBufferDescriptor@@UEAAPEAXI@Z 0000000180026404     security_buffer_descriptor.obj
 0002:0000b404       $unwind$??$common_initialize_environment_nolock@D@@YAHXZ 0000000180026404     libdesktopcrt:environment_initialization.obj
 0002:0000b404       $unwind$?_map_initializeContextStep@@YA?AV?$Local@VValue@v8@@@v8@@PEAVWorker@@@Z 0000000180026404     security_context.obj
 0002:0000b404       $unwind$?DloadGetSRWLockFunctionPointers@@YAEXZ 0000000180026404     DelayImp:delayhlp.obj
 0002:0000b404       $unwind$_RTC_Terminate     0000000180026404     LIBCMT:initsect.obj
 0002:0000b404       $unwind$_updatetlocinfoEx_nolock 0000000180026404     libappcrt:locale_refcounting.obj
 0002:0000b404       $unwind$wcsncat_s          0000000180026404     libappcrt:wcsncat_s.obj
 0002:0000b404       $unwind$_initterm_e        0000000180026404     libappcrt:initterm.obj
 0002:0000b404       $unwind$??_Gexception@std@@UEAAPEAXI@Z 0000000180026404     LIBCMT:throw_bad_alloc.obj
 0002:0000b404       $unwind$__acrt_uninitialize_lowio 0000000180026404     libappcrt:ioinit.obj
 0002:0000b404       $unwind$_fflush_nolock     0000000180026404     libappcrt:fflush.obj
 0002:0000b404       $unwind$_RTC_Initialize    0000000180026404     LIBCMT:initsect.obj
 0002:0000b404       $unwind$??_Gbad_alloc@std@@UEAAPEAXI@Z 0000000180026404     LIBCMT:throw_bad_alloc.obj
 0002:0000b404       $unwind$?_map_encryptMessage@@YA?AV?$Local@VValue@v8@@@v8@@PEAVWorker@@@Z 0000000180026404     security_context.obj
 0002:0000b404       $unwind$??_GSecurityBuffer@@UEAAPEAXI@Z 0000000180026404     security_buffer.obj
 0002:0000b404       $unwind$_close_nolock      0000000180026404     libappcrt:close.obj
 0002:0000b404       $unwind$??_Gbad_array_new_length@std@@UEAAPEAXI@Z 0000000180026404     LIBCMT:throw_bad_alloc.obj
 0002:0000b404       $unwind$_realloc_base      0000000180026404     libappcrt:realloc_base.obj
 0002:0000b404       $unwind$?_map_decryptMessage@@YA?AV?$Local@VValue@v8@@@v8@@PEAVWorker@@@Z 0000000180026404     security_context.obj
 0002:0000b404       $unwind$base64_encode      0000000180026404     base64.obj
 0002:0000b404       $unwind$??_GSecurityCredentials@@UEAAPEAXI@Z 0000000180026404     security_credentials.obj
 0002:0000b404       $unwind$?internal_isupper_l@@YA_NHQEAU__crt_locale_pointers@@@Z 0000000180026404     libappcrt:tolower_toupper.obj
 0002:0000b404       $unwind$__acrt_errno_map_os_error 0000000180026404     libappcrt:errno.obj
 0002:0000b404       $unwind$_setfpstatusword   0000000180026404     libappcrt:_fenvutils.obj
 0002:0000b404       $unwind$??0_LocaleUpdate@@QEAA@QEAU__crt_locale_pointers@@@Z 0000000180026404     libappcrt:output.obj
 0002:0000b404       $unwind$wcsncpy_s          0000000180026404     libappcrt:wcsncpy_s.obj
 0002:0000b404       $unwind$?force_decimal_point@__crt_stdio_output@@YAXPEADQEAU__crt_locale_pointers@@@Z 0000000180026404     libappcrt:output.obj
 0002:0000b404       $unwind$_stricmp           0000000180026404     libappcrt:stricmp.obj
 0002:0000b404       $unwind$__acrt_execute_uninitializers 0000000180026404     libappcrt:shared_initialization.obj
 0002:0000b404       $unwind$?_map_initializeContext@@YA?AV?$Local@VValue@v8@@@v8@@PEAVWorker@@@Z 0000000180026404     security_context.obj
 0002:0000b404       $unwind$?type_case_c_tchar@?$output_processor@DV?$stream_output_adapter@D@__crt_stdio_output@@V?$standard_base@DV?$stream_output_adapter@D@__crt_stdio_output@@@2@@__crt_stdio_output@@AEAA_ND@Z 0000000180026404     libappcrt:output.obj
 0002:0000b404       $unwind$__vcrt_FlsSetValue 0000000180026404     libvcruntime:winapi_downlevel.obj
 0002:0000b404       $unwind$??$common_xtox@K_W@@YAHKQEA_W_KI_N@Z 0000000180026404     libappcrt:xtoa.obj
 0002:0000b404       $unwind$?HasContextGetter@SecurityContext@@SAXV?$Local@VString@v8@@@v8@@AEBV?$PropertyCallbackInfo@VValue@v8@@@Nan@@@Z 0000000180026404     security_context.obj
 0002:0000b404       $unwind$?state_case_normal_tchar@?$output_processor@DV?$stream_output_adapter@D@__crt_stdio_output@@V?$standard_base@DV?$stream_output_adapter@D@__crt_stdio_output@@@2@@__crt_stdio_output@@AEAA_ND@Z 0000000180026404     libappcrt:output.obj
 0002:0000b404       $unwind$__acrt_stdio_free_buffer_nolock 0000000180026404     libappcrt:_freebuf.obj
 0002:0000b404       $unwind$??_GSecurityContext@@UEAAPEAXI@Z 0000000180026404     security_context.obj
 0002:0000b404       $unwind$??_GKerberos@@UEAAPEAXI@Z 0000000180026404     kerberos.obj
 0002:0000b404       $unwind$??_GObjectWrap@Nan@@UEAAPEAXI@Z 0000000180026404     kerberos.obj
 0002:0000b410       $unwind$?Initialize@Kerberos@@SAXV?$Local@VObject@v8@@@v8@@@Z 0000000180026410     kerberos.obj
 0002:0000b41c       $unwind$?init@@YAXV?$Local@VObject@v8@@@v8@@@Z 000000018002641c     kerberos.obj
 0002:0000b41c       $unwind$??$Unwrap@VSecurityContext@@@ObjectWrap@Nan@@SAPEAVSecurityContext@@V?$Local@VObject@v8@@@v8@@@Z 000000018002641c     security_context.obj
 0002:0000b41c       $unwind$??$Unwrap@VSecurityBuffer@@@ObjectWrap@Nan@@SAPEAVSecurityBuffer@@V?$Local@VObject@v8@@@v8@@@Z 000000018002641c     security_buffer.obj
 0002:0000b41c       $unwind$??$Unwrap@VSecurityCredentials@@@ObjectWrap@Nan@@SAPEAVSecurityCredentials@@V?$Local@VObject@v8@@@v8@@@Z 000000018002641c     security_context.obj
 0002:0000b41c       $unwind$??$Unwrap@VSecurityBufferDescriptor@@@ObjectWrap@Nan@@SAPEAVSecurityBufferDescriptor@@V?$Local@VObject@v8@@@v8@@@Z 000000018002641c     security_buffer_descriptor.obj
 0002:0000b424       $unwind$base64_decode      0000000180026424     base64.obj
 0002:0000b438       $unwind$printf             0000000180026438     kerberos_sspi.obj
 0002:0000b444       $unwind$??$free_crt_array@D$06@@YAXAEAY06PEAD@Z 0000000180026444     libappcrt:inittime.obj
 0002:0000b444       $unwind$??$free_crt_array@_W$0M@@@YAXAEAY0M@PEA_W@Z 0000000180026444     libappcrt:inittime.obj
 0002:0000b444       $unwind$__vcrt_InitializeCriticalSectionEx 0000000180026444     libvcruntime:winapi_downlevel.obj
 0002:0000b444       $unwind$?type_case_n@?$output_processor@DV?$stream_output_adapter@D@__crt_stdio_output@@V?$standard_base@DV?$stream_output_adapter@D@__crt_stdio_output@@@2@@__crt_stdio_output@@AEAA_NXZ 0000000180026444     libappcrt:output.obj
 0002:0000b444       $unwind$?type_case_Z@?$output_processor@DV?$stream_output_adapter@D@__crt_stdio_output@@V?$standard_base@DV?$stream_output_adapter@D@__crt_stdio_output@@@2@@__crt_stdio_output@@AEAA_NXZ 0000000180026444     libappcrt:output.obj
 0002:0000b444       $unwind$_exception_enabled 0000000180026444     libappcrt:libm_error.obj
 0002:0000b444       $unwind$?type_case_Z@?$output_processor@_WV?$stream_output_adapter@_W@__crt_stdio_output@@V?$standard_base@_WV?$stream_output_adapter@_W@__crt_stdio_output@@@2@@__crt_stdio_output@@AEAA_NXZ 0000000180026444     libappcrt:output.obj
 0002:0000b444       $unwind$?select_parent_window@@YAPEAUHWND__@@QEBUmessage_box_pointers@?A0x7bd314f8@@@Z 0000000180026444     libappcrt:crtmbox.obj
 0002:0000b444       $unwind$_sspi_QueryContextAttributes 0000000180026444     kerberos_sspi.obj
 0002:0000b444       $unwind$_DllMainCRTStartup 0000000180026444     LIBCMT:dll_dllmain.obj
 0002:0000b444       $unwind$memcpy_s           0000000180026444     libappcrt:cfout.obj
 0002:0000b444       $unwind$?type_case_Z@?$output_processor@_WV?$string_output_adapter@_W@__crt_stdio_output@@V?$standard_base@_WV?$string_output_adapter@_W@__crt_stdio_output@@@2@@__crt_stdio_output@@AEAA_NXZ 0000000180026444     libappcrt:output.obj
 0002:0000b444       $unwind$_sspi_EncryptMessage 0000000180026444     kerberos_sspi.obj
 0002:0000b444       $unwind$??R<lambda_4909cec072cc63abf853bb7ad6f5d02b>@@QEBAXXZ 0000000180026444     libappcrt:mbctype.obj
 0002:0000b444       $unwind$?type_case_s@?$output_processor@DV?$stream_output_adapter@D@__crt_stdio_output@@V?$standard_base@DV?$stream_output_adapter@D@__crt_stdio_output@@@2@@__crt_stdio_output@@AEAA_NXZ 0000000180026444     libappcrt:output.obj
 0002:0000b444       $unwind$__acrt_stdio_flush_nolock 0000000180026444     libappcrt:fflush.obj
 0002:0000b444       $unwind$__acrt_execute_initializers 0000000180026444     libappcrt:shared_initialization.obj
 0002:0000b444       $unwind$??$free_crt_array@D$0M@@@YAXAEAY0M@PEAD@Z 0000000180026444     libappcrt:inittime.obj
 0002:0000b444       $unwind$?_queryContextAttributes@@YAXPEAVWorker@@@Z 0000000180026444     security_context.obj
 0002:0000b444       $unwind$__vcrt_getptd_noexit 0000000180026444     libvcruntime:per_thread_data.obj
 0002:0000b444       $unwind$__dcrt_getptd_noexit 0000000180026444     libdesktopcrt:per_thread_data.obj
 0002:0000b444       $unwind$?type_case_s@?$output_processor@_WV?$stream_output_adapter@_W@__crt_stdio_output@@V?$standard_base@_WV?$stream_output_adapter@_W@__crt_stdio_output@@@2@@__crt_stdio_output@@AEAA_NXZ 0000000180026444     libappcrt:output.obj
 0002:0000b444       $unwind$?type_case_n@?$output_processor@_WV?$stream_output_adapter@_W@__crt_stdio_output@@V?$standard_base@_WV?$stream_output_adapter@_W@__crt_stdio_output@@@2@@__crt_stdio_output@@AEAA_NXZ 0000000180026444     libappcrt:output.obj
 0002:0000b444       $unwind$_fclose_nolock     0000000180026444     libappcrt:fclose.obj
 0002:0000b444       $unwind$?type_case_s@?$output_processor@_WV?$string_output_adapter@_W@__crt_stdio_output@@V?$standard_base@_WV?$string_output_adapter@_W@__crt_stdio_output@@@2@@__crt_stdio_output@@AEAA_NXZ 0000000180026444     libappcrt:output.obj
 0002:0000b444       $unwind$??$free_crt_array@_W$06@@YAXAEAY06PEA_W@Z 0000000180026444     libappcrt:inittime.obj
 0002:0000b444       $unwind$?type_case_n@?$output_processor@_WV?$string_output_adapter@_W@__crt_stdio_output@@V?$standard_base@_WV?$string_output_adapter@_W@__crt_stdio_output@@@2@@__crt_stdio_output@@AEAA_NXZ 0000000180026444     libappcrt:output.obj
 0002:0000b444       $unwind$??$common_lseek_nolock@_J@@YA_JH_JH@Z 0000000180026444     libappcrt:lseek.obj
 0002:0000b454       $unwind$?New@SecurityBuffer@@CAXAEBV?$FunctionCallbackInfo@VValue@v8@@@Nan@@@Z 0000000180026454     security_buffer.obj
 0002:0000b460       $chain$1$?New@SecurityBuffer@@CAXAEBV?$FunctionCallbackInfo@VValue@v8@@@Nan@@@Z 0000000180026460     security_buffer.obj
 0002:0000b478       $chain$2$?New@SecurityBuffer@@CAXAEBV?$FunctionCallbackInfo@VValue@v8@@@Nan@@@Z 0000000180026478     security_buffer.obj
 0002:0000b48c       $chain$3$?New@SecurityBuffer@@CAXAEBV?$FunctionCallbackInfo@VValue@v8@@@Nan@@@Z 000000018002648c     security_buffer.obj
 0002:0000b49c       $chain$4$?New@SecurityBuffer@@CAXAEBV?$FunctionCallbackInfo@VValue@v8@@@Nan@@@Z 000000018002649c     security_buffer.obj
 0002:0000b4ac       $unwind$?ToBuffer@SecurityBufferDescriptor@@SAXAEBV?$FunctionCallbackInfo@VValue@v8@@@Nan@@@Z 00000001800264ac     security_buffer_descriptor.obj
 0002:0000b4ac       $unwind$??R<lambda_11f1b9fd45bbe0eb9ff4d0acb58976bf>@@QEBAHXZ 00000001800264ac     libappcrt:setvbuf.obj
 0002:0000b4ac       $unwind$?ToBuffer@SecurityBuffer@@SAXAEBV?$FunctionCallbackInfo@VValue@v8@@@Nan@@@Z 00000001800264ac     security_buffer.obj
 0002:0000b4ac       $unwind$?_encryptMessage@@YAXPEAVWorker@@@Z 00000001800264ac     security_context.obj
 0002:0000b4ac       $unwind$?type_case_c_tchar@?$output_processor@_WV?$string_output_adapter@_W@__crt_stdio_output@@V?$standard_base@_WV?$string_output_adapter@_W@__crt_stdio_output@@@2@@__crt_stdio_output@@AEAA_N_W@Z 00000001800264ac     libappcrt:output.obj
 0002:0000b4ac       $unwind$?type_case_c_tchar@?$output_processor@_WV?$stream_output_adapter@_W@__crt_stdio_output@@V?$standard_base@_WV?$stream_output_adapter@_W@__crt_stdio_output@@@2@@__crt_stdio_output@@AEAA_N_W@Z 00000001800264ac     libappcrt:output.obj
 0002:0000b4bc       $unwind$?Initialize@SecurityBuffer@@SAXV?$Local@VObject@v8@@@v8@@@Z 00000001800264bc     security_buffer.obj
 0002:0000b4cc       $unwind$??0SecurityBufferDescriptor@@QEAA@AEBV?$Persistent@VArray@v8@@V?$NonCopyablePersistentTraits@VArray@v8@@@2@@Nan@@@Z 00000001800264cc     security_buffer_descriptor.obj
 0002:0000b4dc       $unwind$?bufferSize@SecurityBufferDescriptor@@QEAA_KXZ 00000001800264dc     security_buffer_descriptor.obj
 0002:0000b4e8       $chain$2$?bufferSize@SecurityBufferDescriptor@@QEAA_KXZ 00000001800264e8     security_buffer_descriptor.obj
 0002:0000b504       $chain$3$?bufferSize@SecurityBufferDescriptor@@QEAA_KXZ 0000000180026504     security_buffer_descriptor.obj
 0002:0000b514       $unwind$?toBuffer@SecurityBufferDescriptor@@QEAAPEADXZ 0000000180026514     security_buffer_descriptor.obj
 0002:0000b52c       $unwind$?New@SecurityBufferDescriptor@@CAXAEBV?$FunctionCallbackInfo@VValue@v8@@@Nan@@@Z 000000018002652c     security_buffer_descriptor.obj
 0002:0000b538       $chain$1$?New@SecurityBufferDescriptor@@CAXAEBV?$FunctionCallbackInfo@VValue@v8@@@Nan@@@Z 0000000180026538     security_buffer_descriptor.obj
 0002:0000b550       $unwind$?Initialize@SecurityBufferDescriptor@@SAXV?$Local@VObject@v8@@@v8@@@Z 0000000180026550     security_buffer_descriptor.obj
 0002:0000b560       $unwind$?GetterCallbackWrapper@imp@Nan@@YAXV?$Local@VName@v8@@@v8@@AEBV?$PropertyCallbackInfo@VValue@v8@@@4@@Z 0000000180026560     security_context.obj
 0002:0000b56c       $unwind$??0Callback@Nan@@QEAA@AEBV?$Local@VFunction@v8@@@v8@@@Z 000000018002656c     security_context.obj
 0002:0000b57c       $unwind$?SetAccessor@Nan@@YAXV?$Local@VObjectTemplate@v8@@@v8@@V?$Local@VString@v8@@@3@P6AX1AEBV?$PropertyCallbackInfo@VValue@v8@@@1@@ZP6AX1V?$Local@VValue@v8@@@3@AEBV?$PropertyCallbackInfo@X@1@@Z4W4AccessControl@3@W4PropertyAttribute@3@V?$Local@VAccessorSignature@v8@@@3@@Z 000000018002657c     security_context.obj
 0002:0000b588       $unwind$?After@SecurityCredentials@@CAXPEAUuv_work_s@@@Z 0000000180026588     security_credentials.obj
 0002:0000b588       $unwind$?After@@YAXPEAUuv_work_s@@@Z 0000000180026588     security_context.obj
 0002:0000b598       $chain$1$?After@@YAXPEAUuv_work_s@@@Z 0000000180026598     security_context.obj
 0002:0000b5b0       $chain$2$?After@@YAXPEAUuv_work_s@@@Z 00000001800265b0     security_context.obj
 0002:0000b5c0       $unwind$?New@SecurityContext@@SAXAEBV?$FunctionCallbackInfo@VValue@v8@@@Nan@@@Z 00000001800265c0     security_context.obj
 0002:0000b5cc       $unwind$?_initializeContext@@YAXPEAVWorker@@@Z 00000001800265cc     security_context.obj
 0002:0000b5ec       $unwind$?InitializeContext@SecurityContext@@SAXAEBV?$FunctionCallbackInfo@VValue@v8@@@Nan@@@Z 00000001800265ec     security_context.obj
 0002:0000b600       $chain$1$?InitializeContext@SecurityContext@@SAXAEBV?$FunctionCallbackInfo@VValue@v8@@@Nan@@@Z 0000000180026600     security_context.obj
 0002:0000b618       $chain$2$?InitializeContext@SecurityContext@@SAXAEBV?$FunctionCallbackInfo@VValue@v8@@@Nan@@@Z 0000000180026618     security_context.obj
 0002:0000b62c       $chain$3$?InitializeContext@SecurityContext@@SAXAEBV?$FunctionCallbackInfo@VValue@v8@@@Nan@@@Z 000000018002662c     security_context.obj
 0002:0000b63c       $unwind$__acrt_GetStdHandle 000000018002663c     libappcrt:winapi_nonmsdk.obj
 0002:0000b63c       $unwind$__acrt_post_initialize_nonmsdk_dependencies 000000018002663c     libappcrt:winapi_nonmsdk.obj
 0002:0000b63c       $unwind$?PayloadGetter@SecurityContext@@SAXV?$Local@VString@v8@@@v8@@AEBV?$PropertyCallbackInfo@VValue@v8@@@Nan@@@Z 000000018002663c     security_context.obj
 0002:0000b63c       $unwind$__acrt_GetFileType 000000018002663c     libappcrt:winapi_nonmsdk.obj
 0002:0000b63c       $unwind$__acrt_ExitProcess 000000018002663c     libappcrt:winapi_nonmsdk.obj
 0002:0000b648       $unwind$?_initializeContextStep@@YAXPEAVWorker@@@Z 0000000180026648     security_context.obj
 0002:0000b650       $chain$7$?_initializeContextStep@@YAXPEAVWorker@@@Z 0000000180026650     security_context.obj
 0002:0000b680       $chain$8$?_initializeContextStep@@YAXPEAVWorker@@@Z 0000000180026680     security_context.obj
 0002:0000b694       $chain$9$?_initializeContextStep@@YAXPEAVWorker@@@Z 0000000180026694     security_context.obj
 0002:0000b6a4       $unwind$?InitalizeStep@SecurityContext@@SAXAEBV?$FunctionCallbackInfo@VValue@v8@@@Nan@@@Z 00000001800266a4     security_context.obj
 0002:0000b6b4       $chain$1$?InitalizeStep@SecurityContext@@SAXAEBV?$FunctionCallbackInfo@VValue@v8@@@Nan@@@Z 00000001800266b4     security_context.obj
 0002:0000b6cc       $chain$2$?InitalizeStep@SecurityContext@@SAXAEBV?$FunctionCallbackInfo@VValue@v8@@@Nan@@@Z 00000001800266cc     security_context.obj
 0002:0000b6e0       $chain$3$?InitalizeStep@SecurityContext@@SAXAEBV?$FunctionCallbackInfo@VValue@v8@@@Nan@@@Z 00000001800266e0     security_context.obj
 0002:0000b6f0       $chain$0$?_encryptMessage@@YAXPEAVWorker@@@Z 00000001800266f0     security_context.obj
 0002:0000b704       $chain$1$?_encryptMessage@@YAXPEAVWorker@@@Z 0000000180026704     security_context.obj
 0002:0000b714       $unwind$?EncryptMessage@SecurityContext@@SAXAEBV?$FunctionCallbackInfo@VValue@v8@@@Nan@@@Z 0000000180026714     security_context.obj
 0002:0000b714       $unwind$?DecryptMessage@SecurityContext@@SAXAEBV?$FunctionCallbackInfo@VValue@v8@@@Nan@@@Z 0000000180026714     security_context.obj
 0002:0000b714       $unwind$?QueryContextAttributesA@SecurityContext@@SAXAEBV?$FunctionCallbackInfo@VValue@v8@@@Nan@@@Z 0000000180026714     security_context.obj
 0002:0000b720       $chain$1$?EncryptMessage@SecurityContext@@SAXAEBV?$FunctionCallbackInfo@VValue@v8@@@Nan@@@Z 0000000180026720     security_context.obj
 0002:0000b738       $chain$2$?EncryptMessage@SecurityContext@@SAXAEBV?$FunctionCallbackInfo@VValue@v8@@@Nan@@@Z 0000000180026738     security_context.obj
 0002:0000b748       $unwind$?_decryptMessage@@YAXPEAVWorker@@@Z 0000000180026748     security_context.obj
 0002:0000b75c       $chain$1$?DecryptMessage@SecurityContext@@SAXAEBV?$FunctionCallbackInfo@VValue@v8@@@Nan@@@Z 000000018002675c     security_context.obj
 0002:0000b774       $chain$2$?DecryptMessage@SecurityContext@@SAXAEBV?$FunctionCallbackInfo@VValue@v8@@@Nan@@@Z 0000000180026774     security_context.obj
 0002:0000b784       $unwind$?_map_queryContextAttributes@@YA?AV?$Local@VValue@v8@@@v8@@PEAVWorker@@@Z 0000000180026784     security_context.obj
 0002:0000b790       $chain$0$?_map_queryContextAttributes@@YA?AV?$Local@VValue@v8@@@v8@@PEAVWorker@@@Z 0000000180026790     security_context.obj
 0002:0000b7a4       $chain$1$?_map_queryContextAttributes@@YA?AV?$Local@VValue@v8@@@v8@@PEAVWorker@@@Z 00000001800267a4     security_context.obj
 0002:0000b7b8       $chain$2$?_map_queryContextAttributes@@YA?AV?$Local@VValue@v8@@@v8@@PEAVWorker@@@Z 00000001800267b8     security_context.obj
 0002:0000b7c8       $chain$3$?_map_queryContextAttributes@@YA?AV?$Local@VValue@v8@@@v8@@PEAVWorker@@@Z 00000001800267c8     security_context.obj
 0002:0000b7d8       $chain$1$?QueryContextAttributesA@SecurityContext@@SAXAEBV?$FunctionCallbackInfo@VValue@v8@@@Nan@@@Z 00000001800267d8     security_context.obj
 0002:0000b7f0       $chain$2$?QueryContextAttributesA@SecurityContext@@SAXAEBV?$FunctionCallbackInfo@VValue@v8@@@Nan@@@Z 00000001800267f0     security_context.obj
 0002:0000b800       $unwind$?Initialize@SecurityContext@@SAXV?$Local@VObject@v8@@@v8@@@Z 0000000180026800     security_context.obj
 0002:0000b814       $unwind$?_authSSPIAquire@@YAXPEAVWorker@@@Z 0000000180026814     security_credentials.obj
 0002:0000b830       $unwind$?Aquire@SecurityCredentials@@SAXAEBV?$FunctionCallbackInfo@VValue@v8@@@Nan@@@Z 0000000180026830     security_credentials.obj
 0002:0000b848       $chain$1$?Aquire@SecurityCredentials@@SAXAEBV?$FunctionCallbackInfo@VValue@v8@@@Nan@@@Z 0000000180026848     security_credentials.obj
 0002:0000b85c       $chain$2$?Aquire@SecurityCredentials@@SAXAEBV?$FunctionCallbackInfo@VValue@v8@@@Nan@@@Z 000000018002685c     security_credentials.obj
 0002:0000b86c       $unwind$?Initialize@SecurityCredentials@@SAXV?$Local@VObject@v8@@@v8@@@Z 000000018002686c     security_credentials.obj
 0002:0000b878       $chain$1$?After@SecurityCredentials@@CAXPEAUuv_work_s@@@Z 0000000180026878     security_credentials.obj
 0002:0000b890       $chain$2$?After@SecurityCredentials@@CAXPEAUuv_work_s@@@Z 0000000180026890     security_credentials.obj
 0002:0000b8a0       xdata                      00000001800268a0     node:node.exe
 0002:0000b8a8       $xdatasym                  00000001800268a8     LIBCMT:amdsecgs.obj
 0002:0000b8ac       $unwind$?dllmain_crt_process_attach@@YAHQEAUHINSTANCE__@@QEAX@Z 00000001800268ac     LIBCMT:dll_dllmain.obj
 0002:0000b904       $unwind$?dllmain_crt_process_detach@@YAH_N@Z 0000000180026904     LIBCMT:dll_dllmain.obj
 0002:0000b92c       $unwind$?dllmain_dispatch@@YAHQEAUHINSTANCE__@@KQEAX@Z 000000018002692c     LIBCMT:dll_dllmain.obj
 0002:0000b954       $unwind$?fin$1@?0??common_exit@@YAXHW4_crt_exit_cleanup_mode@@W4_crt_exit_return_mode@@@Z@4HA 0000000180026954     LIBCMT:dll_dllmain.obj
 0002:0000b954       $unwind$?filt$0@?0??dllmain_dispatch@@YAHQEAUHINSTANCE__@@KQEAX@Z@4HA 0000000180026954     LIBCMT:dll_dllmain.obj
 0002:0000b954       $unwind$?filt$0@?0??common_exit@@YAXHW4_crt_exit_cleanup_mode@@W4_crt_exit_return_mode@@@Z@4HA 0000000180026954     LIBCMT:dll_dllmain.obj
 0002:0000b95c       $unwind$_putwch_nolock     000000018002695c     LIBCMT:gs_report.obj
 0002:0000b95c       $unwind$__report_gsfailure 000000018002695c     LIBCMT:gs_report.obj
 0002:0000b964       $unwind$?__scrt_throw_std_bad_alloc@@YAXXZ 0000000180026964     LIBCMT:throw_bad_alloc.obj
 0002:0000b964       $unwind$?__scrt_throw_std_bad_array_new_length@@YAXXZ 0000000180026964     LIBCMT:throw_bad_alloc.obj
 0002:0000b96c       $unwind$__security_init_cookie 000000018002696c     LIBCMT:gs_support.obj
 0002:0000b978       $unwind$__scrt_is_nonwritable_in_current_image 0000000180026978     LIBCMT:utility.obj
 0002:0000b998       $unwind$__scrt_is_nonwritable_in_current_image$filt$0 0000000180026998     LIBCMT:utility.obj
 0002:0000b9a0       $unwind$__scrt_fastfail    00000001800269a0     LIBCMT:utility_desktop.obj
 0002:0000b9b0       $unwind$__isa_available_init 00000001800269b0     LIBCMT:cpu_disp.obj
 0002:0000b9c4       $unwind$__C_specific_handler 00000001800269c4     libvcruntime:chandler.obj
 0002:0000b9e0       $xdatasym                  00000001800269e0     libvcruntime:jmpuwind.obj
 0002:0000b9f4       $unwind$__vcrt_initialize_winapi_thunks 00000001800269f4     libvcruntime:winapi_downlevel.obj
 0002:0000b9fc       $unwind$__vcrt_uninitialize_winapi_thunks 00000001800269fc     libvcruntime:winapi_downlevel.obj
 0002:0000ba04       $unwind$__vcrt_CapturePreviousContext 0000000180026a04     libvcruntime:winapi_downlevel.obj
 0002:0000ba10       $unwind$?try_get_function@@YAPEAXW4function_id@?A0x20227a44@@QEBDQEBW4module_id@2@2@Z 0000000180026a10     libvcruntime:winapi_downlevel.obj
 0002:0000ba10       $unwind$?write_string@?$string_output_adapter@_W@__crt_stdio_output@@QEBAXQEB_WHQEAH1@Z 0000000180026a10     libvcruntime:winapi_downlevel.obj
 0002:0000ba10       $unwind$_register_onexit_function 0000000180026a10     libvcruntime:winapi_downlevel.obj
 0002:0000ba2c       $unwind$_CxxThrowException 0000000180026a2c     libvcruntime:throw.obj
 0002:0000ba3c       $unwind$?terminate@@YAXXZ  0000000180026a3c     libvcruntime:hooks.obj
 0002:0000ba60       $xdatasym                  0000000180026a60     libvcruntime:memset.obj
 0002:0000ba64       $unwind$fwprintf           0000000180026a64     libappcrt:assert.obj
 0002:0000ba6c       $unwind$swprintf           0000000180026a6c     libappcrt:assert.obj
 0002:0000ba74       $unwind$??$common_assert_to_stderr@_W@@YAXQEB_W0I@Z 0000000180026a74     libappcrt:assert.obj
 0002:0000ba90       $unwind$??$common_assert_to_message_box@_W@@YAXQEB_W0IQEAX@Z 0000000180026a90     libappcrt:assert.obj
 0002:0000baac       $unwind$??$common_assert_to_message_box_build_string@_W@@YAXQEA_W_KQEB_W2IQEAX@Z 0000000180026aac     libappcrt:assert.obj
 0002:0000bacc       $unwind$__dcrt_uninitialize_ptd 0000000180026acc     libappcrt:onexit.obj
 0002:0000bacc       $unwind$__vcrt_initialize_ptd 0000000180026acc     libappcrt:onexit.obj
 0002:0000bacc       $unwind$?DloadReleaseSectionWriteAccess@@YAXXZ 0000000180026acc     libappcrt:onexit.obj
 0002:0000bacc       $unwind$__vcrt_thread_detach 0000000180026acc     libappcrt:onexit.obj
 0002:0000bacc       $unwind$__vcrt_thread_attach 0000000180026acc     libappcrt:onexit.obj
 0002:0000bacc       $unwind$__vcrt_uninitialize_critical 0000000180026acc     libappcrt:onexit.obj
 0002:0000bacc       $unwind$__vcrt_uninitialize 0000000180026acc     libappcrt:onexit.obj
 0002:0000bacc       $unwind$__vcrt_initialize  0000000180026acc     libappcrt:onexit.obj
 0002:0000bacc       $unwind$__dcrt_initialize_ptd 0000000180026acc     libappcrt:onexit.obj
 0002:0000bacc       $unwind$__vcrt_uninitialize_ptd 0000000180026acc     libappcrt:onexit.obj
 0002:0000bacc       $unwind$__dcrt_initialize  0000000180026acc     libappcrt:onexit.obj
 0002:0000bacc       $unwind$_fileno            0000000180026acc     libappcrt:onexit.obj
 0002:0000bacc       $unwind$__dcrt_uninitialize 0000000180026acc     libappcrt:onexit.obj
 0002:0000bacc       $unwind$__acrt_initialize_multibyte 0000000180026acc     libappcrt:onexit.obj
 0002:0000bacc       $unwind$_errno             0000000180026acc     libappcrt:onexit.obj
 0002:0000bacc       $unwind$__doserrno         0000000180026acc     libappcrt:onexit.obj
 0002:0000bacc       $unwind$__vcrt_freefls     0000000180026acc     libappcrt:onexit.obj
 0002:0000bacc       $unwind$__dcrt_terminate_console_output 0000000180026acc     libappcrt:onexit.obj
 0002:0000bacc       $unwind$__dcrt_uninitialize_critical 0000000180026acc     libappcrt:onexit.obj
 0002:0000bacc       $unwind$_invoke_watson     0000000180026acc     libappcrt:onexit.obj
 0002:0000bacc       $unwind$_msize             0000000180026acc     libappcrt:onexit.obj
 0002:0000bacc       $unwind$__dcrt_uninitialize_environments_nolock 0000000180026acc     libappcrt:onexit.obj
 0002:0000bacc       $unwind$_set_error_mode    0000000180026acc     libappcrt:onexit.obj
 0002:0000bacc       $unwind$__scrt_dllmain_crt_thread_detach 0000000180026acc     libappcrt:onexit.obj
 0002:0000bacc       $unwind$?state_case_size@?$output_processor@_WV?$stream_output_adapter@_W@__crt_stdio_output@@V?$standard_base@_WV?$stream_output_adapter@_W@__crt_stdio_output@@@2@@__crt_stdio_output@@AEAA_NXZ 0000000180026acc     libappcrt:onexit.obj
 0002:0000bacc       $unwind$__scrt_dllmain_crt_thread_attach 0000000180026acc     libappcrt:onexit.obj
 0002:0000bacc       $unwind$??$uninitialize_environment_internal@D@@YAXAEAPEAPEAD@Z 0000000180026acc     libappcrt:onexit.obj
 0002:0000bacc       $unwind$__scrt_dllmain_uninitialize_critical 0000000180026acc     libappcrt:onexit.obj
 0002:0000bacc       $unwind$__scrt_dllmain_uninitialize_c 0000000180026acc     libappcrt:onexit.obj
 0002:0000bacc       $unwind$__scrt_dllmain_after_initialize_c 0000000180026acc     libappcrt:onexit.obj
 0002:0000bacc       $unwind$__acrt_uninitialize_critical 0000000180026acc     libappcrt:onexit.obj
 0002:0000bacc       $unwind$__scrt_dllmain_exception_filter 0000000180026acc     libappcrt:onexit.obj
 0002:0000bacc       $unwind$__acrt_has_user_matherr 0000000180026acc     libappcrt:onexit.obj
 0002:0000bacc       $unwind$abort              0000000180026acc     libappcrt:onexit.obj
 0002:0000bacc       $unwind$_getfpcontrolword  0000000180026acc     libappcrt:onexit.obj
 0002:0000bacc       $unwind$__acrt_initialize_command_line 0000000180026acc     libappcrt:onexit.obj
 0002:0000bacc       $unwind$_getfpstatusword   0000000180026acc     libappcrt:onexit.obj
 0002:0000bacc       $unwind$__acrt_thread_attach 0000000180026acc     libappcrt:onexit.obj
 0002:0000bacc       $unwind$__acrt_initialize_rand_s 0000000180026acc     libappcrt:onexit.obj
 0002:0000bacc       $unwind$?unget@?$c_string_character_source@_W@__crt_strtox@@QEAAX_W@Z 0000000180026acc     libappcrt:onexit.obj
 0002:0000bacc       $unwind$__acrt_initialize_ptd 0000000180026acc     libappcrt:onexit.obj
 0002:0000bacc       $unwind$?state_case_size@?$output_processor@_WV?$string_output_adapter@_W@__crt_stdio_output@@V?$standard_base@_WV?$string_output_adapter@_W@__crt_stdio_output@@@2@@__crt_stdio_output@@AEAA_NXZ 0000000180026acc     libappcrt:onexit.obj
 0002:0000bacc       $unwind$__acrt_initialize_downlevel_dependencies 0000000180026acc     libappcrt:onexit.obj
 0002:0000bacc       $unwind$__acrt_report_runtime_error_and_exit 0000000180026acc     libappcrt:onexit.obj
 0002:0000bacc       $unwind$_get_osfhandle     0000000180026acc     libappcrt:onexit.obj
 0002:0000bacc       $unwind$_set_errno_from_matherr 0000000180026acc     libappcrt:onexit.obj
 0002:0000bacc       $unwind$?dllmain_crt_dispatch@@YAHQEAUHINSTANCE__@@KQEAX@Z 0000000180026acc     libappcrt:onexit.obj
 0002:0000bacc       $unwind$__acrt_initialize_heap 0000000180026acc     libappcrt:onexit.obj
 0002:0000bacc       $unwind$__acrt_thread_detach 0000000180026acc     libappcrt:onexit.obj
 0002:0000bacc       $unwind$__pctype_func      0000000180026acc     libappcrt:onexit.obj
 0002:0000bacc       $unwind$__acrt_uninitialize_ptd 0000000180026acc     libappcrt:onexit.obj
 0002:0000bacc       $unwind$??$uninitialize_environment_internal@_W@@YAXAEAPEAPEA_W@Z 0000000180026acc     libappcrt:onexit.obj
 0002:0000bacc       $unwind$?state_case_size@?$output_processor@DV?$stream_output_adapter@D@__crt_stdio_output@@V?$standard_base@DV?$stream_output_adapter@D@__crt_stdio_output@@@2@@__crt_stdio_output@@AEAA_NXZ 0000000180026acc     libappcrt:onexit.obj
 0002:0000bacc       $unwind$__raise_securityfailure 0000000180026acc     libappcrt:onexit.obj
 0002:0000bacc       $unwind$_isatty            0000000180026acc     libappcrt:onexit.obj
 0002:0000bacc       $unwind$_statfp            0000000180026acc     libappcrt:onexit.obj
 0002:0000bacc       $unwind$initialize_c       0000000180026acc     libappcrt:onexit.obj
 0002:0000bacc       $unwind$__vcrt_initialize_pure_virtual_call_handler 0000000180026acc     libappcrt:onexit.obj
 0002:0000bacc       $unwind$__GSHandlerCheck   0000000180026acc     libappcrt:onexit.obj
 0002:0000bacc       $unwind$atexit             0000000180026acc     libappcrt:onexit.obj
 0002:0000bacc       $unwind$__acrt_post_initialize 0000000180026acc     libappcrt:onexit.obj
 0002:0000bacc       $unwind$__acrt_DownlevelLocaleNameToLCID 0000000180026acc     libappcrt:onexit.obj
 0002:0000bad4       $unwind$_execute_onexit_table 0000000180026ad4     libappcrt:onexit.obj
 0002:0000baec       $unwind$?common_onexit@@YAP6AHXZQEAU_onexit_table_t@@Q6AHXZ@Z 0000000180026aec     libappcrt:onexit.obj
 0002:0000bb10       $unwind$__stdio_common_vfwprintf 0000000180026b10     libappcrt:output.obj
 0002:0000bb10       $unwind$__stdio_common_vfprintf 0000000180026b10     libappcrt:output.obj
 0002:0000bb18       $unwind$__stdio_common_vswprintf 0000000180026b18     libappcrt:output.obj
 0002:0000bb3c       $unwind$?write_string@?$stream_output_adapter@D@__crt_stdio_output@@QEBAXQEBDHQEAH1@Z 0000000180026b3c     libappcrt:output.obj
 0002:0000bb58       $unwind$?process@?$output_processor@DV?$stream_output_adapter@D@__crt_stdio_output@@V?$standard_base@DV?$stream_output_adapter@D@__crt_stdio_output@@@2@@__crt_stdio_output@@QEAAHXZ 0000000180026b58     libappcrt:output.obj
 0002:0000bb68       $unwind$?parse_int_from_format_string@?$output_processor@DV?$stream_output_adapter@D@__crt_stdio_output@@V?$standard_base@DV?$stream_output_adapter@D@__crt_stdio_output@@@2@@__crt_stdio_output@@AEAA_NQEAH@Z 0000000180026b68     libappcrt:output.obj
 0002:0000bb7c       $unwind$?state_case_type@?$output_processor@DV?$stream_output_adapter@D@__crt_stdio_output@@V?$standard_base@DV?$stream_output_adapter@D@__crt_stdio_output@@@2@@__crt_stdio_output@@AEAA_NXZ 0000000180026b7c     libappcrt:output.obj
 0002:0000bb94       $unwind$?type_case_a@?$output_processor@DV?$stream_output_adapter@D@__crt_stdio_output@@V?$standard_base@DV?$stream_output_adapter@D@__crt_stdio_output@@@2@@__crt_stdio_output@@AEAA_NXZ 0000000180026b94     libappcrt:output.obj
 0002:0000bba0       $unwind$??R<lambda_8b97db1b1a74c9d5d2f05201ee762dcb>@@QEBAHXZ 0000000180026ba0     libappcrt:output.obj
 0002:0000bba0       $unwind$??R<lambda_c2e2a780365980b01940295d90109018>@@QEBAHXZ 0000000180026ba0     libappcrt:output.obj
 0002:0000bbbc       $unwind$?write_string@?$stream_output_adapter@_W@__crt_stdio_output@@QEBAXQEB_WHQEAH1@Z 0000000180026bbc     libappcrt:output.obj
 0002:0000bbd4       $unwind$?process@?$output_processor@_WV?$stream_output_adapter@_W@__crt_stdio_output@@V?$standard_base@_WV?$stream_output_adapter@_W@__crt_stdio_output@@@2@@__crt_stdio_output@@QEAAHXZ 0000000180026bd4     libappcrt:output.obj
 0002:0000bbec       $unwind$?parse_int_from_format_string@?$output_processor@_WV?$stream_output_adapter@_W@__crt_stdio_output@@V?$standard_base@_WV?$stream_output_adapter@_W@__crt_stdio_output@@@2@@__crt_stdio_output@@AEAA_NQEAH@Z 0000000180026bec     libappcrt:output.obj
 0002:0000bbec       $unwind$?parse_int_from_format_string@?$output_processor@_WV?$string_output_adapter@_W@__crt_stdio_output@@V?$standard_base@_WV?$string_output_adapter@_W@__crt_stdio_output@@@2@@__crt_stdio_output@@AEAA_NQEAH@Z 0000000180026bec     libappcrt:output.obj
 0002:0000bc00       $unwind$?write_stored_string_tchar@?$output_processor@_WV?$stream_output_adapter@_W@__crt_stdio_output@@V?$standard_base@_WV?$stream_output_adapter@_W@__crt_stdio_output@@@2@@__crt_stdio_output@@AEAA_N_W@Z 0000000180026c00     libappcrt:output.obj
 0002:0000bc14       $unwind$?process@?$output_processor@_WV?$string_output_adapter@_W@__crt_stdio_output@@V?$standard_base@_WV?$string_output_adapter@_W@__crt_stdio_output@@@2@@__crt_stdio_output@@QEAAHXZ 0000000180026c14     libappcrt:output.obj
 0002:0000bc14       $unwind$__acrt_initialize_stdio 0000000180026c14     libappcrt:output.obj
 0002:0000bc2c       $unwind$?state_case_type@?$output_processor@_WV?$string_output_adapter@_W@__crt_stdio_output@@V?$standard_base@_WV?$string_output_adapter@_W@__crt_stdio_output@@@2@@__crt_stdio_output@@AEAA_NXZ 0000000180026c2c     libappcrt:output.obj
 0002:0000bc2c       $unwind$?state_case_type@?$output_processor@_WV?$stream_output_adapter@_W@__crt_stdio_output@@V?$standard_base@_WV?$stream_output_adapter@_W@__crt_stdio_output@@@2@@__crt_stdio_output@@AEAA_NXZ 0000000180026c2c     libappcrt:output.obj
 0002:0000bc50       $unwind$?type_case_a@?$output_processor@_WV?$stream_output_adapter@_W@__crt_stdio_output@@V?$standard_base@_WV?$stream_output_adapter@_W@__crt_stdio_output@@@2@@__crt_stdio_output@@AEAA_NXZ 0000000180026c50     libappcrt:output.obj
 0002:0000bc50       $unwind$?type_case_a@?$output_processor@_WV?$string_output_adapter@_W@__crt_stdio_output@@V?$standard_base@_WV?$string_output_adapter@_W@__crt_stdio_output@@@2@@__crt_stdio_output@@AEAA_NXZ 0000000180026c50     libappcrt:output.obj
 0002:0000bc60       $unwind$?type_case_integer@?$output_processor@_WV?$stream_output_adapter@_W@__crt_stdio_output@@V?$standard_base@_WV?$stream_output_adapter@_W@__crt_stdio_output@@@2@@__crt_stdio_output@@AEAA_NI_N@Z 0000000180026c60     libappcrt:output.obj
 0002:0000bc60       $unwind$?type_case_integer@?$output_processor@_WV?$string_output_adapter@_W@__crt_stdio_output@@V?$standard_base@_WV?$string_output_adapter@_W@__crt_stdio_output@@@2@@__crt_stdio_output@@AEAA_NI_N@Z 0000000180026c60     libappcrt:output.obj
 0002:0000bc60       $unwind$?type_case_integer@?$output_processor@DV?$stream_output_adapter@D@__crt_stdio_output@@V?$standard_base@DV?$stream_output_adapter@D@__crt_stdio_output@@@2@@__crt_stdio_output@@AEAA_NI_N@Z 0000000180026c60     libappcrt:output.obj
 0002:0000bc68       $unwind$?write_stored_string_tchar@?$output_processor@_WV?$string_output_adapter@_W@__crt_stdio_output@@V?$standard_base@_WV?$string_output_adapter@_W@__crt_stdio_output@@@2@@__crt_stdio_output@@AEAA_N_W@Z 0000000180026c68     libappcrt:output.obj
 0002:0000bc7c       $unwind$??$write_multiple_characters@V?$string_output_adapter@_W@__crt_stdio_output@@D@__crt_stdio_output@@YAXAEBV?$string_output_adapter@_W@0@DHQEAH@Z 0000000180026c7c     libappcrt:output.obj
 0002:0000bc88       $unwind$??$write_multiple_characters@V?$stream_output_adapter@D@__crt_stdio_output@@D@__crt_stdio_output@@YAXAEBV?$stream_output_adapter@D@0@DHQEAH@Z 0000000180026c88     libappcrt:output.obj
 0002:0000bc88       $unwind$??$write_multiple_characters@V?$stream_output_adapter@_W@__crt_stdio_output@@D@__crt_stdio_output@@YAXAEBV?$stream_output_adapter@_W@0@DHQEAH@Z 0000000180026c88     libappcrt:output.obj
 0002:0000bca0       $unwind$??$?RV<lambda_375f2059ece04f1a3491234976883daf>@@AEAV<lambda_8b97db1b1a74c9d5d2f05201ee762dcb>@@V<lambda_d91a30588a32db60f761b18b0c09ab11>@@@?$__crt_seh_guarded_call@H@@QEAAH$$QEAV<lambda_375f2059ece04f1a3491234976883daf>@@AEAV<lambda_8b97db1b1a74c9d5d2f05201ee762dcb>@@$$QEAV<lambda_d91a30588a32db60f761b18b0c09ab11>@@@Z 0000000180026ca0     libappcrt:output.obj
 0002:0000bcc4       $unwind$??$?RV<lambda_f44018d659a65f962de91447066bfbb0>@@AEAV<lambda_c2e2a780365980b01940295d90109018>@@V<lambda_7f98fe85b6c52e814278db065628b656>@@@?$__crt_seh_guarded_call@H@@QEAAH$$QEAV<lambda_f44018d659a65f962de91447066bfbb0>@@AEAV<lambda_c2e2a780365980b01940295d90109018>@@$$QEAV<lambda_7f98fe85b6c52e814278db065628b656>@@@Z 0000000180026cc4     libappcrt:output.obj
 0002:0000bce8       $unwind$__acrt_GetConsoleMode 0000000180026ce8     libappcrt:strdup.obj
 0002:0000bce8       $unwind$__acrt_SetStdHandle 0000000180026ce8     libappcrt:strdup.obj
 0002:0000bce8       $unwind$_strdup            0000000180026ce8     libappcrt:strdup.obj
 0002:0000bcf8       $unwind$_stricmp_l         0000000180026cf8     libappcrt:stricmp.obj
 0002:0000bd08       $unwind$_query_new_handler 0000000180026d08     libappcrt:new_handler.obj
 0002:0000bd28       $unwind$?common_exit@@YAXHW4_crt_exit_cleanup_mode@@W4_crt_exit_return_mode@@@Z 0000000180026d28     libappcrt:exit.obj
 0002:0000bd60       $unwind$__acrt_locale_free_numeric 0000000180026d60     libappcrt:free_base.obj
 0002:0000bd60       $unwind$_free_base         0000000180026d60     libappcrt:free_base.obj
 0002:0000bd68       $unwind$__acrt_report_runtime_error 0000000180026d68     libappcrt:report_runtime_error.obj
 0002:0000bd80       $unwind$write_string_to_console 0000000180026d80     libappcrt:report_runtime_error.obj
 0002:0000bd94       $unwind$__acrt_call_reportfault 0000000180026d94     libappcrt:invalid_parameter.obj
 0002:0000bdb4       $unwind$_invalid_parameter 0000000180026db4     libappcrt:invalid_parameter.obj
 0002:0000bdc8       $unwind$wcstol             0000000180026dc8     libappcrt:xtoa.obj
 0002:0000bdc8       $unwind$strtol             0000000180026dc8     libappcrt:xtoa.obj
 0002:0000bdc8       $unwind$??$common_xtox_s@K_W@@YAHKQEA_W_KI_N@Z 0000000180026dc8     libappcrt:xtoa.obj
 0002:0000bdd0       $unwind$__acrt_MessageBoxW 0000000180026dd0     libappcrt:crtmbox.obj
 0002:0000bde8       $unwind$?write_stored_string_tchar@?$output_processor@DV?$stream_output_adapter@D@__crt_stdio_output@@V?$standard_base@DV?$stream_output_adapter@D@__crt_stdio_output@@@2@@__crt_stdio_output@@AEAA_ND@Z 0000000180026de8     libappcrt:crtmbox.obj
 0002:0000bde8       $unwind$?is_interactive@@YA?B_NQEBUmessage_box_pointers@?A0x7bd314f8@@@Z 0000000180026de8     libappcrt:crtmbox.obj
 0002:0000be00       $unwind$__acrt_uninitialize_nonmsdk_dependencies 0000000180026e00     libappcrt:winapi_nonmsdk.obj
 0002:0000be10       $unwind$get_or_load_module_handle 0000000180026e10     libappcrt:winapi_nonmsdk.obj
 0002:0000be24       $unwind$fflush             0000000180026e24     libappcrt:fflush.obj
 0002:0000be48       $unwind$common_flush_all   0000000180026e48     libappcrt:fflush.obj
 0002:0000be80       $unwind$setvbuf            0000000180026e80     libappcrt:setvbuf.obj
 0002:0000be88       $unwind$??$?RV<lambda_748170f0745e8ff1df7bb43bcbf3b33d>@@AEAV<lambda_11f1b9fd45bbe0eb9ff4d0acb58976bf>@@V<lambda_17683df6366aaadc43f3d402e9bdd393>@@@?$__crt_seh_guarded_call@H@@QEAAH$$QEAV<lambda_748170f0745e8ff1df7bb43bcbf3b33d>@@AEAV<lambda_11f1b9fd45bbe0eb9ff4d0acb58976bf>@@$$QEAV<lambda_17683df6366aaadc43f3d402e9bdd393>@@@Z 0000000180026e88     libappcrt:setvbuf.obj
 0002:0000beac       $unwind$__acrt_get_sigabrt_handler 0000000180026eac     libappcrt:signal.obj
 0002:0000becc       $unwind$raise              0000000180026ecc     libappcrt:signal.obj
 0002:0000bf08       $unwind$__acrt_LCMapStringEx 0000000180026f08     libappcrt:winapi_downlevel.obj
 0002:0000bf18       $unwind$__acrt_CaptureCurrentContext 0000000180026f18     libappcrt:winapi_downlevel.obj
 0002:0000bf24       $unwind$__acrt_LoadLibraryExW 0000000180026f24     libappcrt:winapi_downlevel.obj
 0002:0000bf24       $unwind$__acrt_GetModuleHandleExW 0000000180026f24     libappcrt:winapi_downlevel.obj
 0002:0000bf24       $unwind$__acrt_FreeLibrary 0000000180026f24     libappcrt:winapi_downlevel.obj
 0002:0000bf24       $unwind$__acrt_GetModuleHandleW 0000000180026f24     libappcrt:winapi_downlevel.obj
 0002:0000bf24       $unwind$_invalid_parameter_noinfo 0000000180026f24     libappcrt:winapi_downlevel.obj
 0002:0000bf24       $unwind$wctomb_s           0000000180026f24     libappcrt:winapi_downlevel.obj
 0002:0000bf24       $unwind$_itow_s            0000000180026f24     libappcrt:winapi_downlevel.obj
 0002:0000bf24       $unwind$?get_kernel32_module_handle@@YAPEAUHINSTANCE__@@XZ 0000000180026f24     libappcrt:winapi_downlevel.obj
 0002:0000bf24       $unwind$__acrt_GetStartupInfoW 0000000180026f24     libappcrt:winapi_downlevel.obj
 0002:0000bf24       $unwind$_log10_special     0000000180026f24     libappcrt:winapi_downlevel.obj
 0002:0000bf2c       $unwind$_fcloseall         0000000180026f2c     libappcrt:closeall.obj
 0002:0000bf54       $unwind$__acrt_initialize_lowio 0000000180026f54     libappcrt:ioinit.obj
 0002:0000bf84       $unwind$??__E__badioinfo@@YAXXZ 0000000180026f84     libappcrt:ioinit.obj
 0002:0000bf8c       $unwind$?initialize_inherited_file_handles_nolock@@YAXXZ 0000000180026f8c     libappcrt:ioinit.obj
 0002:0000bfa8       $unwind$?initialize_stdio_handles_nolock@@YAXXZ 0000000180026fa8     libappcrt:ioinit.obj
 0002:0000bfc0       $unwind$_tolower_l         0000000180026fc0     libappcrt:tolower_toupper.obj
 0002:0000bfd0       $unwind$strnlen            0000000180026fd0     libappcrt:strnlen.obj
 0002:0000bfd0       $unwind$wcsnlen            0000000180026fd0     libappcrt:strnlen.obj
 0002:0000bfd8       $unwind$??$parse_integer@KV?$c_string_character_source@D@__crt_strtox@@@__crt_strtox@@YAKQEAU__crt_locale_pointers@@V?$c_string_character_source@D@0@H_N@Z 0000000180026fd8     libappcrt:strtox.obj
 0002:0000bfe8       $chain$0$??$parse_integer@KV?$c_string_character_source@D@__crt_strtox@@@__crt_strtox@@YAKQEAU__crt_locale_pointers@@V?$c_string_character_source@D@0@H_N@Z 0000000180026fe8     libappcrt:strtox.obj
 0002:0000bffc       $chain$3$??$parse_integer@KV?$c_string_character_source@D@__crt_strtox@@@__crt_strtox@@YAKQEAU__crt_locale_pointers@@V?$c_string_character_source@D@0@H_N@Z 0000000180026ffc     libappcrt:strtox.obj
 0002:0000c018       $chain$4$??$parse_integer@KV?$c_string_character_source@D@__crt_strtox@@@__crt_strtox@@YAKQEAU__crt_locale_pointers@@V?$c_string_character_source@D@0@H_N@Z 0000000180027018     libappcrt:strtox.obj
 0002:0000c030       $chain$5$??$parse_integer@KV?$c_string_character_source@D@__crt_strtox@@@__crt_strtox@@YAKQEAU__crt_locale_pointers@@V?$c_string_character_source@D@0@H_N@Z 0000000180027030     libappcrt:strtox.obj
 0002:0000c040       $unwind$??$parse_integer@KV?$c_string_character_source@_W@__crt_strtox@@@__crt_strtox@@YAKQEAU__crt_locale_pointers@@V?$c_string_character_source@_W@0@H_N@Z 0000000180027040     libappcrt:strtox.obj
 0002:0000c050       $chain$2$??$parse_integer@KV?$c_string_character_source@_W@__crt_strtox@@@__crt_strtox@@YAKQEAU__crt_locale_pointers@@V?$c_string_character_source@_W@0@H_N@Z 0000000180027050     libappcrt:strtox.obj
 0002:0000c06c       $chain$4$??$parse_integer@KV?$c_string_character_source@_W@__crt_strtox@@@__crt_strtox@@YAKQEAU__crt_locale_pointers@@V?$c_string_character_source@_W@0@H_N@Z 000000018002706c     libappcrt:strtox.obj
 0002:0000c084       $chain$5$??$parse_integer@KV?$c_string_character_source@_W@__crt_strtox@@@__crt_strtox@@YAKQEAU__crt_locale_pointers@@V?$c_string_character_source@_W@0@H_N@Z 0000000180027084     libappcrt:strtox.obj
 0002:0000c098       $chain$6$??$parse_integer@KV?$c_string_character_source@_W@__crt_strtox@@@__crt_strtox@@YAKQEAU__crt_locale_pointers@@V?$c_string_character_source@_W@0@H_N@Z 0000000180027098     libappcrt:strtox.obj
 0002:0000c0b4       $unwind$_mbtowc_l          00000001800270b4     libappcrt:mbtowc.obj
 0002:0000c0cc       $unwind$_wctomb_s_l        00000001800270cc     libappcrt:wctomb.obj
 0002:0000c0dc       $unwind$__acrt_uninitialize_locale 00000001800270dc     libappcrt:wsetlocale.obj
 0002:0000c0fc       $unwind$?construct_ptd@@YAXQEAU__acrt_ptd@@QEAU__crt_locale_data@@@Z 00000001800270fc     libappcrt:per_thread_data.obj
 0002:0000c130       $unwind$?destroy_ptd@@YAXQEAU__acrt_ptd@@@Z 0000000180027130     libappcrt:per_thread_data.obj
 0002:0000c160       $unwind$__acrt_fp_format   0000000180027160     libappcrt:cvt.obj
 0002:0000c17c       $unwind$?fp_format_nan_or_infinity@@YAHW4__acrt_fp_class@@_NPEAD_K1@Z 000000018002717c     libappcrt:cvt.obj
 0002:0000c190       $unwind$?fp_format_e_internal@@YAHQEAD_KH_NIQEAU_strflt@@2QEAU__crt_locale_pointers@@@Z 0000000180027190     libappcrt:cvt.obj
 0002:0000c1a8       $unwind$?fp_format_e@@YAHQEBNQEAD_K12H_NIQEAU__crt_locale_pointers@@@Z 00000001800271a8     libappcrt:cvt.obj
 0002:0000c1bc       $unwind$?fp_format_a@@YAHQEBNPEAD_KQEAD2H_NIQEAU__crt_locale_pointers@@@Z 00000001800271bc     libappcrt:cvt.obj
 0002:0000c1d8       $unwind$?fp_format_f_internal@@YAHQEADHQEAU_strflt@@_NQEAU__crt_locale_pointers@@@Z 00000001800271d8     libappcrt:cvt.obj
 0002:0000c1f0       $unwind$?fp_format_g@@YAHQEBNQEAD_K12H_NIQEAU__crt_locale_pointers@@@Z 00000001800271f0     libappcrt:cvt.obj
 0002:0000c204       $unwind$_fputwc_nolock     0000000180027204     libappcrt:fputwc.obj
 0002:0000c224       $unwind$__acrt_stdio_begin_temporary_buffering_nolock 0000000180027224     libappcrt:_sftbuf.obj
 0002:0000c234       $unwind$__acrt_stdio_end_temporary_buffering_nolock 0000000180027234     libappcrt:_sftbuf.obj
 0002:0000c240       $unwind$__acrt_update_thread_multibyte_data 0000000180027240     libappcrt:mbctype.obj
 0002:0000c264       $unwind$_setmbcp_nolock    0000000180027264     libappcrt:mbctype.obj
 0002:0000c284       $unwind$_isleadbyte_l      0000000180027284     libappcrt:mbctype.obj
 0002:0000c284       $unwind$?getSystemCP@@YAHH@Z 0000000180027284     libappcrt:mbctype.obj
 0002:0000c284       $unwind$isdigit            0000000180027284     libappcrt:mbctype.obj
 0002:0000c28c       $unwind$?get_message_box_pointers@@YAPEBUmessage_box_pointers@?A0x7bd314f8@@XZ 000000018002728c     libappcrt:mbctype.obj
 0002:0000c28c       $unwind$__acrt_stdio_flush_and_write_wide_nolock 000000018002728c     libappcrt:mbctype.obj
 0002:0000c28c       $unwind$?setSBCS@@YAXPEAU__crt_multibyte_data@@@Z 000000018002728c     libappcrt:mbctype.obj
 0002:0000c28c       $unwind$_wassert           000000018002728c     libappcrt:mbctype.obj
 0002:0000c28c       $unwind$??$ensure_buffer_is_big_enough@D@formatting_buffer@__crt_stdio_output@@QEAA_N_K@Z 000000018002728c     libappcrt:mbctype.obj
 0002:0000c28c       $unwind$__acrt_lowio_create_handle_array 000000018002728c     libappcrt:mbctype.obj
 0002:0000c28c       $unwind$__acrt_getptd_noexit 000000018002728c     libappcrt:mbctype.obj
 0002:0000c28c       $unwind$__acrt_stdio_flush_and_write_narrow_nolock 000000018002728c     libappcrt:mbctype.obj
 0002:0000c28c       $unwind$_initterm          000000018002728c     libappcrt:mbctype.obj
 0002:0000c28c       $unwind$__acrt_getptd      000000018002728c     libappcrt:mbctype.obj
 0002:0000c28c       $unwind$_recalloc_base     000000018002728c     libappcrt:mbctype.obj
 0002:0000c28c       $unwind$__acrt_free_locale 000000018002728c     libappcrt:mbctype.obj
 0002:0000c28c       $unwind$_seh_filter_exe    000000018002728c     libappcrt:mbctype.obj
 0002:0000c2a0       $unwind$?setSBUpLow@@YAXPEAU__crt_multibyte_data@@@Z 00000001800272a0     libappcrt:mbctype.obj
 0002:0000c2bc       $unwind$?setmbcp_internal@@YAHH_N@Z 00000001800272bc     libappcrt:mbctype.obj
 0002:0000c2cc       $unwind$??$?RV<lambda_ac7773736e81d5faf930c0e5de6ba98a>@@AEAV<lambda_4909cec072cc63abf853bb7ad6f5d02b>@@V<lambda_0d0f2b3334941ad2ab7cbf11e6f8125e>@@@?$__crt_seh_guarded_call@X@@QEAAX$$QEAV<lambda_ac7773736e81d5faf930c0e5de6ba98a>@@AEAV<lambda_4909cec072cc63abf853bb7ad6f5d02b>@@$$QEAV<lambda_0d0f2b3334941ad2ab7cbf11e6f8125e>@@@Z 00000001800272cc     libappcrt:mbctype.obj
 0002:0000c2f0       $unwind$??$?RV<lambda_d17ac63b517632fdc8df1c31ffa76819>@@AEAV<lambda_b808959b143381ef4fbd2e2a6d0713c5>@@V<lambda_bc395a1919b252af978e71f59923aa8a>@@@?$__crt_seh_guarded_call@H@@QEAAH$$QEAV<lambda_d17ac63b517632fdc8df1c31ffa76819>@@AEAV<lambda_b808959b143381ef4fbd2e2a6d0713c5>@@$$QEAV<lambda_bc395a1919b252af978e71f59923aa8a>@@@Z 00000001800272f0     libappcrt:commit.obj
 0002:0000c314       $unwind$_write             0000000180027314     libappcrt:write.obj
 0002:0000c340       $unwind$_write_nolock      0000000180027340     libappcrt:write.obj
 0002:0000c358       $unwind$?write_double_translated_ansi_nolock@@YA?AUwrite_result@?A0x31df4182@@HQEBDI@Z 0000000180027358     libappcrt:write.obj
 0002:0000c378       $unwind$?write_text_utf16le_nolock@@YA?AUwrite_result@?A0x31df4182@@HQEBDI@Z 0000000180027378     libappcrt:write.obj
 0002:0000c378       $unwind$?write_text_ansi_nolock@@YA?AUwrite_result@?A0x31df4182@@HQEBDI@Z 0000000180027378     libappcrt:write.obj
 0002:0000c398       $unwind$?write_text_utf8_nolock@@YA?AUwrite_result@?A0x31df4182@@HQEBDI@Z 0000000180027398     libappcrt:write.obj
 0002:0000c3bc       $unwind$?GetTableIndexFromLocaleName@@YAHPEB_W@Z 00000001800273bc     libappcrt:lcidtoname_downlevel.obj
 0002:0000c3d4       $unwind$fclose             00000001800273d4     libappcrt:fclose.obj
 0002:0000c3f8       $unwind$__std_exception_copy 00000001800273f8     libappcrt:osfinfo.obj
 0002:0000c3f8       $unwind$_free_osfhnd       00000001800273f8     libappcrt:osfinfo.obj
 0002:0000c3f8       $unwind$??$message_box_wait_thread@_W@@YAKQEAX@Z 00000001800273f8     libappcrt:osfinfo.obj
 0002:0000c40c       $unwind$__acrt_lowio_destroy_handle_array 000000018002740c     libappcrt:osfinfo.obj
 0002:0000c40c       $unwind$__acrt_freefls     000000018002740c     libappcrt:osfinfo.obj
 0002:0000c41c       $unwind$__acrt_lowio_ensure_fh_exists 000000018002741c     libappcrt:osfinfo.obj
 0002:0000c448       $unwind$?fin$0@?0???$?RV<lambda_ac7773736e81d5faf930c0e5de6ba98a>@@AEAV<lambda_4909cec072cc63abf853bb7ad6f5d02b>@@V<lambda_0d0f2b3334941ad2ab7cbf11e6f8125e>@@@?$__crt_seh_guarded_call@X@@QEAAX$$QEAV<lambda_ac7773736e81d5faf930c0e5de6ba98a>@@AEAV<lambda_4909cec072cc63abf853bb7ad6f5d02b>@@$$QEAV<lambda_0d0f2b3334941ad2ab7cbf11e6f8125e>@@@Z@4HA 0000000180027448     libappcrt:osfinfo.obj
 0002:0000c448       $unwind$_ctrlfp$filt$0     0000000180027448     libappcrt:osfinfo.obj
 0002:0000c448       $unwind$?fin$0@?0???$?RV<lambda_d17ac63b517632fdc8df1c31ffa76819>@@AEAV<lambda_b808959b143381ef4fbd2e2a6d0713c5>@@V<lambda_bc395a1919b252af978e71f59923aa8a>@@@?$__crt_seh_guarded_call@H@@QEAAH$$QEAV<lambda_d17ac63b517632fdc8df1c31ffa76819>@@AEAV<lambda_b808959b143381ef4fbd2e2a6d0713c5>@@$$QEAV<lambda_bc395a1919b252af978e71f59923aa8a>@@@Z@4HA 0000000180027448     libappcrt:osfinfo.obj
 0002:0000c448       $unwind$__acrt_initialize_lowio$fin$0 0000000180027448     libappcrt:osfinfo.obj
 0002:0000c448       $unwind$_write$fin$0       0000000180027448     libappcrt:osfinfo.obj
 0002:0000c448       $unwind$?fin$0@?0???$?RV<lambda_f44018d659a65f962de91447066bfbb0>@@AEAV<lambda_c2e2a780365980b01940295d90109018>@@V<lambda_7f98fe85b6c52e814278db065628b656>@@@?$__crt_seh_guarded_call@H@@QEAAH$$QEAV<lambda_f44018d659a65f962de91447066bfbb0>@@AEAV<lambda_c2e2a780365980b01940295d90109018>@@$$QEAV<lambda_7f98fe85b6c52e814278db065628b656>@@@Z@4HA 0000000180027448     libappcrt:osfinfo.obj
 0002:0000c448       $unwind$?fin$0@?0???$?RV<lambda_748170f0745e8ff1df7bb43bcbf3b33d>@@AEAV<lambda_11f1b9fd45bbe0eb9ff4d0acb58976bf>@@V<lambda_17683df6366aaadc43f3d402e9bdd393>@@@?$__crt_seh_guarded_call@H@@QEAAH$$QEAV<lambda_748170f0745e8ff1df7bb43bcbf3b33d>@@AEAV<lambda_11f1b9fd45bbe0eb9ff4d0acb58976bf>@@$$QEAV<lambda_17683df6366aaadc43f3d402e9bdd393>@@@Z@4HA 0000000180027448     libappcrt:osfinfo.obj
 0002:0000c448       $unwind$?fin$0@?0???$?RV<lambda_375f2059ece04f1a3491234976883daf>@@AEAV<lambda_8b97db1b1a74c9d5d2f05201ee762dcb>@@V<lambda_d91a30588a32db60f761b18b0c09ab11>@@@?$__crt_seh_guarded_call@H@@QEAAH$$QEAV<lambda_375f2059ece04f1a3491234976883daf>@@AEAV<lambda_8b97db1b1a74c9d5d2f05201ee762dcb>@@$$QEAV<lambda_d91a30588a32db60f761b18b0c09ab11>@@@Z@4HA 0000000180027448     libappcrt:osfinfo.obj
 0002:0000c448       $unwind$?fin$0@?0???$?RV<lambda_ad0d618f8fc7178cbb9b4cac8054c445>@@AEAV<lambda_1307520d4d13bf9de0f9297d24bd96f6>@@V<lambda_c928f5e71c1aebcb9e89b1d1406cd29d>@@@?$__crt_seh_guarded_call@H@@QEAAH$$QEAV<lambda_ad0d618f8fc7178cbb9b4cac8054c445>@@AEAV<lambda_1307520d4d13bf9de0f9297d24bd96f6>@@$$QEAV<lambda_c928f5e71c1aebcb9e89b1d1406cd29d>@@@Z@4HA 0000000180027448     libappcrt:osfinfo.obj
 0002:0000c448       $unwind$fflush$fin$0       0000000180027448     libappcrt:osfinfo.obj
 0002:0000c448       $unwind$__acrt_update_thread_multibyte_data$fin$0 0000000180027448     libappcrt:osfinfo.obj
 0002:0000c448       $unwind$__acrt_lowio_ensure_fh_exists$fin$0 0000000180027448     libappcrt:osfinfo.obj
 0002:0000c448       $unwind$?fin$0@?0???$common_lseek@_J@@YA_JH_JH@Z@4HA 0000000180027448     libappcrt:osfinfo.obj
 0002:0000c448       $unwind$common_control87$filt$0 0000000180027448     libappcrt:osfinfo.obj
 0002:0000c448       $unwind$__acrt_uninitialize_locale$fin$0 0000000180027448     libappcrt:osfinfo.obj
 0002:0000c448       $unwind$?fin$0@?0??dllmain_crt_process_detach@@YAH_N@Z@4HA 0000000180027448     libappcrt:osfinfo.obj
 0002:0000c448       $unwind$?fin$0@?0??dllmain_crt_process_attach@@YAHQEAUHINSTANCE__@@QEAX@Z@4HA 0000000180027448     libappcrt:osfinfo.obj
 0002:0000c448       $unwind$fclose$fin$0       0000000180027448     libappcrt:osfinfo.obj
 0002:0000c448       $unwind$_IsNonwritableInCurrentImage$filt$0 0000000180027448     libappcrt:osfinfo.obj
 0002:0000c448       $unwind$?fin$0@?0??common_onexit@@YAP6AHXZQEAU_onexit_table_t@@Q6AHXZ@Z@4HA 0000000180027448     libappcrt:osfinfo.obj
 0002:0000c448       $unwind$?fin$0@?0??destroy_ptd@@YAXQEAU__acrt_ptd@@@Z@4HA 0000000180027448     libappcrt:osfinfo.obj
 0002:0000c448       $unwind$__acrt_update_thread_locale_data$fin$0 0000000180027448     libappcrt:osfinfo.obj
 0002:0000c448       $unwind$?fin$1@?0??destroy_ptd@@YAXQEAU__acrt_ptd@@@Z@4HA 0000000180027448     libappcrt:osfinfo.obj
 0002:0000c448       $unwind$_query_new_handler$fin$0 0000000180027448     libappcrt:osfinfo.obj
 0002:0000c448       $unwind$_fcloseall$fin$0   0000000180027448     libappcrt:osfinfo.obj
 0002:0000c448       $unwind$common_flush_all$fin$0 0000000180027448     libappcrt:osfinfo.obj
 0002:0000c448       $unwind$?fin$0@?0??construct_ptd@@YAXQEAU__acrt_ptd@@QEAU__crt_locale_data@@@Z@4HA 0000000180027448     libappcrt:osfinfo.obj
 0002:0000c448       $unwind$common_flush_all$fin$1 0000000180027448     libappcrt:osfinfo.obj
 0002:0000c448       $unwind$?fin$1@?0??construct_ptd@@YAXQEAU__acrt_ptd@@QEAU__crt_locale_data@@@Z@4HA 0000000180027448     libappcrt:osfinfo.obj
 0002:0000c448       $unwind$__acrt_get_sigabrt_handler$fin$0 0000000180027448     libappcrt:osfinfo.obj
 0002:0000c448       $unwind$raise$fin$0        0000000180027448     libappcrt:osfinfo.obj
 0002:0000c450       $unwind$_isctype_l         0000000180027450     libappcrt:isctype.obj
 0002:0000c46c       $unwind$__acrt_LCMapStringA 000000018002746c     libappcrt:LCMapStringA.obj
 0002:0000c47c       $unwind$?__acrt_LCMapStringA_stat@@YAHPEAU__crt_locale_pointers@@PEB_WKPEBDHPEADHHH@Z 000000018002747c     libappcrt:LCMapStringA.obj
 0002:0000c4a4       $unwind$iswctype           00000001800274a4     libappcrt:iswctype.obj
 0002:0000c4b0       $unwind$__acrt_locale_free_time 00000001800274b0     libappcrt:inittime.obj
 0002:0000c4c8       $unwind$__acrt_locale_free_monetary 00000001800274c8     libappcrt:initmon.obj
 0002:0000c4d0       $unwind$__acrt_GetStringTypeA 00000001800274d0     libappcrt:GetStringTypeA.obj
 0002:0000c4f8       $unwind$__acrt_update_thread_locale_data 00000001800274f8     libappcrt:locale_refcounting.obj
 0002:0000c51c       $unwind$__acrt_fltout      000000018002751c     libappcrt:cfout.obj
 0002:0000c538       $chain$1$__acrt_fltout     0000000180027538     libappcrt:cfout.obj
 0002:0000c550       $chain$3$__acrt_fltout     0000000180027550     libappcrt:cfout.obj
 0002:0000c568       $chain$4$__acrt_fltout     0000000180027568     libappcrt:cfout.obj
 0002:0000c578       $unwind$??$write_buffer_nolock@D@@YA_NDV__crt_stdio_stream@@@Z 0000000180027578     libappcrt:_flsbuf.obj
 0002:0000c588       $unwind$??$write_buffer_nolock@_W@@YA_N_WV__crt_stdio_stream@@@Z 0000000180027588     libappcrt:_flsbuf.obj
 0002:0000c598       $unwind$??$common_lseek@_J@@YA_JH_JH@Z 0000000180027598     libappcrt:lseek.obj
 0002:0000c5c4       $unwind$_commit            00000001800275c4     libappcrt:close.obj
 0002:0000c5c4       $unwind$_close             00000001800275c4     libappcrt:close.obj
 0002:0000c5cc       $unwind$??$?RV<lambda_ad0d618f8fc7178cbb9b4cac8054c445>@@AEAV<lambda_1307520d4d13bf9de0f9297d24bd96f6>@@V<lambda_c928f5e71c1aebcb9e89b1d1406cd29d>@@@?$__crt_seh_guarded_call@H@@QEAAH$$QEAV<lambda_ad0d618f8fc7178cbb9b4cac8054c445>@@AEAV<lambda_1307520d4d13bf9de0f9297d24bd96f6>@@$$QEAV<lambda_c928f5e71c1aebcb9e89b1d1406cd29d>@@@Z 00000001800275cc     libappcrt:close.obj
 0002:0000c5f0       $xdatasym                  00000001800275f0     libappcrt:log10.obj
 0002:0000c5fc       $unwind$common_control87   00000001800275fc     libappcrt:ieee.obj
 0002:0000c62c       $unwind$_call_matherr      000000018002762c     libappcrt:libm_error.obj
 0002:0000c634       $unwind$_handle_error      0000000180027634     libappcrt:libm_error.obj
 0002:0000c654       $unwind$__acrt_initialize_fma3 0000000180027654     libappcrt:fma3_available.obj
 0002:0000c65c       $unwind$_log_special_common 000000018002765c     libappcrt:log_special.obj
 0002:0000c668       $xdatasym                  0000000180027668     libappcrt:fpsr.obj
 0002:0000c670       $unwind$_raise_exc_ex      0000000180027670     libappcrt:fpexcept.obj
 0002:0000c684       $unwind$_ctrlfp            0000000180027684     libappcrt:fpctrl.obj
 0002:0000c6ac       $unwind$??$create_environment@D@@YAQEAPEADQEAD@Z 00000001800276ac     libdesktopcrt:environment_initialization.obj
 0002:0000c6c4       $unwind$__dcrt_get_narrow_environment_from_os 00000001800276c4     libdesktopcrt:get_environment_from_os.obj
 0002:0000c6dc       $unwind$__dcrt_lowio_initialize_console_output 00000001800276dc     libdesktopcrt:initcon.obj
 0002:0000c6dc       $unwind$_raise_exc         00000001800276dc     libdesktopcrt:initcon.obj
 0002:0000c6e4       $unwind$?DloadObtainSection@@YAPEAXPEAK0@Z 00000001800276e4     DelayImp:delayhlp.obj
 0002:0000c6f4       $unwind$?DloadMakePermanentImageCommit@@YAXPEAX_K@Z 00000001800276f4     DelayImp:delayhlp.obj
 0002:0000c700       $unwind$?DloadProtectSection@@YAXKPEAK@Z 0000000180027700     DelayImp:delayhlp.obj
 0002:0000c710       $unwind$__delayLoadHelper2 0000000180027710     DelayImp:delayhlp.obj
 0002:0000c728       $unwind$_IsNonwritableInCurrentImage 0000000180027728     LIBCMT:pesect.obj
 0002:0000c750       $xdatasym                  0000000180027750     LIBCMT:chkstk.obj
 0002:0000c758       $xdatasym                  0000000180027758     LIBCMT:guard_dispatch.obj
 0002:0000c760       $xdatasym                  0000000180027760     libvcruntime:memcpy.obj
 0002:0000c768       $xdatasym                  0000000180027768     libvcruntime:memcmp.obj
 0002:0000c76c       $unwind$strrchr            000000018002776c     libvcruntime:strrchr.obj
 0002:0000e200       .edata                     0000000180029200     kerberos.exp
 0002:0000e228       rgpv                       0000000180029228     kerberos.exp
 0002:0000e22c       rgszName                   000000018002922c     kerberos.exp
 0002:0000e230       rgwOrd                     0000000180029230     kerberos.exp
 0002:0000e232       szName                     0000000180029232     kerberos.exp
 0002:0000e240       $N00001                    0000000180029240     kerberos.exp
 0002:0000e4fe       .idata$6                   00000001800294fe     kernel32:KERNEL32.dll
 0003:00000030       __vcrt_flsindex            000000018002a030     libvcruntime:per_thread_data.obj
 0003:00000150       ?errtable@@3PAUerrentry@@A 000000018002a150     libappcrt:errno.obj
 0003:000002b8       ?errno_no_memory@@3HA      000000018002a2b8     libappcrt:errno.obj
 0003:000002bc       ?doserrno_no_memory@@3KA   000000018002a2bc     libappcrt:errno.obj
 0003:00000300       _ctype_loc_style           000000018002a300     libappcrt:wsetlocale.obj
 0003:00000308       ?__acrt_flsindex@@3KA      000000018002a308     libappcrt:per_thread_data.obj
 0003:00000980       ?__rgctypeflag@@3PADA      000000018002a980     libappcrt:mbctype.obj
 0003:00000990       ?__rgcode_page_info@@3PAUcode_page_info@@A 000000018002a990     libappcrt:mbctype.obj
 0003:00000d50       ?dazSupported@?1??common_control87@@9@9 000000018002ad50     libappcrt:ieee.obj
 0003:00000d60       ?_names@?1??_get_fname@@9@9 000000018002ad60     libappcrt:fpexcept.obj
 0003:00000f30       ?dazSupported@?1??_ctrlfp@@9@9 000000018002af30     libappcrt:fpctrl.obj
 0003:00000f60       ?__dcrt_flsindex@@3KA      000000018002af60     libdesktopcrt:per_thread_data.obj
 0003:00000f80       _module                    000000018002af80     kerberos.obj
 0003:000012f8       ?__proc_attached@@3HA      000000018002b2f8     LIBCMT:dll_dllmain.obj
 0003:00001300       GS_ExceptionRecord         000000018002b300     LIBCMT:gs_report.obj
 0003:000013a0       GS_ContextRecord           000000018002b3a0     LIBCMT:gs_report.obj
 0003:00001890       ?is_initialized_as_dll@@3_NA 000000018002b890     LIBCMT:utility_static.obj
 0003:000018a0       ?module_handles@@3PAPEAUHINSTANCE__@@A 000000018002b8a0     libvcruntime:winapi_downlevel.obj
 0003:000018b8       ?encoded_function_pointers@@3PAPEAXA 000000018002b8b8     libvcruntime:winapi_downlevel.obj
 0003:00001928       ?heap@@3V_HeapManager@@A   000000018002b928     libvcruntime:undname.obj
 0003:00001950       __vcrt_startup_thread_ptd  000000018002b950     libvcruntime:per_thread_data.obj
 0003:000019d0       __vcrt_lock_table          000000018002b9d0     libvcruntime:locks.obj
 0003:00001a20       __vcrt_locks_initialized   000000018002ba20     libvcruntime:locks.obj
 0003:00001a70       ?_bufin@@3PADA             000000018002ba70     libappcrt:_file.obj
 0003:00002a70       ?__acrt_new_handler@@3V?$dual_state_global@P6AH_K@Z@__crt_state_management@@A 000000018002ca70     libappcrt:new_handler.obj
 0003:00002a78       ?c_termination_complete@@3JA 000000018002ca78     libappcrt:exit.obj
 0003:00002a80       ?thread_local_exit_callback_func@@3P6AXPEAXK0@ZEA 000000018002ca80     libappcrt:exit.obj
 0003:00002a88       ?c_exit_complete@?5??common_exit@@YAXHW4_crt_exit_cleanup_mode@@W4_crt_exit_return_mode@@@Z@4_NA 000000018002ca88     libappcrt:exit.obj
 0003:00002a8c       __acrt_app_type            000000018002ca8c     libappcrt:report_runtime_error.obj
 0003:00002a90       ?outmsg@?P@??__acrt_report_runtime_error@@9@4PA_WA 000000018002ca90     libappcrt:report_runtime_error.obj
 0003:000030b8       ?__acrt_invalid_parameter_handler@@3V?$dual_state_global@P6AXPEB_W00I_K@Z@__crt_state_management@@A 000000018002d0b8     libappcrt:invalid_parameter.obj
 0003:000030c0       __acrt_error_mode          000000018002d0c0     libappcrt:set_error_mode.obj
 0003:000030c8       ?global_state@@3Umessage_box_pointers@?A0x7bd314f8@@A 000000018002d0c8     libappcrt:crtmbox.obj
 0003:00003100       __acrt_module_handles      000000018002d100     libappcrt:winapi_nonmsdk.obj
 0003:00003110       __acrt_winapi_functions    000000018002d110     libappcrt:winapi_nonmsdk.obj
 0003:000031a0       ?console_ctrl_handler_installed@@3_NA 000000018002d1a0     libappcrt:signal.obj
 0003:000031a8       ?ctrlc_action@@3V?$dual_state_global@P6AXH@Z@__crt_state_management@@A 000000018002d1a8     libappcrt:signal.obj
 0003:000031b0       ?ctrlbreak_action@@3V?$dual_state_global@P6AXH@Z@__crt_state_management@@A 000000018002d1b0     libappcrt:signal.obj
 0003:000031b8       ?abort_action@@3V?$dual_state_global@P6AXH@Z@__crt_state_management@@A 000000018002d1b8     libappcrt:signal.obj
 0003:000031c0       ?term_action@@3V?$dual_state_global@P6AXH@Z@__crt_state_management@@A 000000018002d1c0     libappcrt:signal.obj
 0003:000031d0       ?__acrt_lock_table@@3PAU_RTL_CRITICAL_SECTION@@A 000000018002d1d0     libappcrt:locks.obj
 0003:000033d8       ?__acrt_locks_initialized@@3IA 000000018002d3d8     libappcrt:locks.obj
 0003:000033e0       ?__crtCallProc@@3P6AHPEA_WK_J@ZEA 000000018002d3e0     libappcrt:winapi_downlevel.obj
 0003:000033e8       __acrt_kernel32_module_handle 000000018002d3e8     libappcrt:winapi_downlevel.obj
 0003:000033f0       __acrt_downlevel_winapi_functions 000000018002d3f0     libappcrt:winapi_downlevel.obj
 0003:00003884       locale_changed             000000018002d884     libappcrt:wsetlocale.obj
 0003:00003888       ?enable_percent_n@@3_KA    000000018002d888     libappcrt:printf_count_output.obj
 0003:000038a8       ?gen_random_module@@3PEAUHINSTANCE__@@EA 000000018002d8a8     libappcrt:rand_s.obj
 0003:000038b0       ?gen_random_encoded@@3P6AEPEAXK@ZEA 000000018002d8b0     libappcrt:rand_s.obj
 0003:000038f8       ?user_matherr@@3V?$dual_state_global@P6AHPEAU_exception@@@Z@__crt_state_management@@A 000000018002d8f8     libappcrt:matherr.obj
 0003:00003920       ?fSystemSet@@3HA           000000018002d920     libappcrt:mbctype.obj
 0003:00003924       ?initialized@?1??__acrt_initialize_multibyte@@9@4_NA 000000018002d924     libappcrt:mbctype.obj
 0003:00003928       ?__acrt_global_new_mode@@3V?$dual_state_global@J@__crt_state_management@@A 000000018002d928     libappcrt:new_mode.obj
 0003:00003940       ?zero@?CG@???$convert_to_fos_high_precision@N@@YAXNIQEAHQEAD_K@Z@4Ubig_integer@__crt_strtox@@B 000000018002d940     libappcrt:cfout.obj
 0003:00003b10       ?$S1@?CG@???$convert_to_fos_high_precision@N@@YAXNIQEAHQEAD_K@Z@4IA 000000018002db10     libappcrt:cfout.obj
 0003:00003b78       _sspi_security_dll         000000018002db78     kerberos_sspi.obj
 0003:00003b80       _sspi_secur32_dll          000000018002db80     kerberos_sspi.obj
 0004:00000000       $pdata$??__E__badioinfo@@YAXXZ 000000018002e000     libappcrt:ioinit.obj
 0004:0000000c       $pdata$?FunctionCallbackWrapper@imp@Nan@@YAXAEBV?$FunctionCallbackInfo@VValue@v8@@@v8@@@Z 000000018002e00c     kerberos.obj
 0004:00000018       $pdata$?New@?$Factory@VFunctionTemplate@v8@@@imp@Nan@@SA?AV?$Local@VFunctionTemplate@v8@@@v8@@P6AXAEBV?$FunctionCallbackInfo@VValue@v8@@@3@@ZV?$Local@VValue@v8@@@5@V?$Local@VSignature@v8@@@5@@Z 000000018002e018     kerberos.obj
 0004:00000024       $pdata$0$?New@?$Factory@VFunctionTemplate@v8@@@imp@Nan@@SA?AV?$Local@VFunctionTemplate@v8@@@v8@@P6AXAEBV?$FunctionCallbackInfo@VValue@v8@@@3@@ZV?$Local@VValue@v8@@@5@V?$Local@VSignature@v8@@@5@@Z 000000018002e024     kerberos.obj
 0004:00000030       $pdata$1$?New@?$Factory@VFunctionTemplate@v8@@@imp@Nan@@SA?AV?$Local@VFunctionTemplate@v8@@@v8@@P6AXAEBV?$FunctionCallbackInfo@VValue@v8@@@3@@ZV?$Local@VValue@v8@@@5@V?$Local@VSignature@v8@@@5@@Z 000000018002e030     kerberos.obj
 0004:0000003c       $pdata$?Wrap@ObjectWrap@Nan@@IEAAXV?$Local@VObject@v8@@@v8@@@Z 000000018002e03c     kerberos.obj
 0004:00000048       $pdata$?Ref@ObjectWrap@Nan@@MEAAXXZ 000000018002e048     kerberos.obj
 0004:00000054       $pdata$?Unref@ObjectWrap@Nan@@MEAAXXZ 000000018002e054     kerberos.obj
 0004:00000060       $pdata$?WeakCallback@ObjectWrap@Nan@@CAXAEBV?$WeakCallbackInfo@VObjectWrap@Nan@@@v8@@@Z 000000018002e060     kerberos.obj
 0004:0000006c       $pdata$??_GObjectWrap@Nan@@UEAAPEAXI@Z 000000018002e06c     kerberos.obj
 0004:0000006c       $pdata$??_GKerberos@@UEAAPEAXI@Z 000000018002e06c     kerberos.obj
 0004:0000006c       $pdata$??_GSecurityBufferDescriptor@@UEAAPEAXI@Z 000000018002e06c     security_buffer_descriptor.obj
 0004:0000006c       $pdata$??_GSecurityCredentials@@UEAAPEAXI@Z 000000018002e06c     security_credentials.obj
 0004:00000078       $pdata$?Initialize@Kerberos@@SAXV?$Local@VObject@v8@@@v8@@@Z 000000018002e078     kerberos.obj
 0004:00000084       $pdata$?New@Kerberos@@CAXAEBV?$FunctionCallbackInfo@VValue@v8@@@Nan@@@Z 000000018002e084     kerberos.obj
 0004:00000090       $pdata$?init@@YAXV?$Local@VObject@v8@@@v8@@@Z 000000018002e090     kerberos.obj
 0004:0000009c       $pdata$base64_encode       000000018002e09c     base64.obj
 0004:000000a8       $pdata$base64_decode       000000018002e0a8     base64.obj
 0004:000000b4       $pdata$??_GWorker@@UEAAPEAXI@Z 000000018002e0b4     worker.obj
 0004:000000c0       $pdata$printf              000000018002e0c0     kerberos_sspi.obj
 0004:000000cc       $pdata$_sspi_EncryptMessage 000000018002e0cc     kerberos_sspi.obj
 0004:000000d8       $pdata$_sspi_QueryContextAttributes 000000018002e0d8     kerberos_sspi.obj
 0004:000000e4       $pdata$??_GSecurityBuffer@@UEAAPEAXI@Z 000000018002e0e4     security_buffer.obj
 0004:000000f0       $pdata$??1SecurityBuffer@@UEAA@XZ 000000018002e0f0     security_buffer.obj
 0004:000000fc       $pdata$?New@SecurityBuffer@@CAXAEBV?$FunctionCallbackInfo@VValue@v8@@@Nan@@@Z 000000018002e0fc     security_buffer.obj
 0004:00000108       $pdata$1$?New@SecurityBuffer@@CAXAEBV?$FunctionCallbackInfo@VValue@v8@@@Nan@@@Z 000000018002e108     security_buffer.obj
 0004:00000114       $pdata$2$?New@SecurityBuffer@@CAXAEBV?$FunctionCallbackInfo@VValue@v8@@@Nan@@@Z 000000018002e114     security_buffer.obj
 0004:00000120       $pdata$3$?New@SecurityBuffer@@CAXAEBV?$FunctionCallbackInfo@VValue@v8@@@Nan@@@Z 000000018002e120     security_buffer.obj
 0004:0000012c       $pdata$4$?New@SecurityBuffer@@CAXAEBV?$FunctionCallbackInfo@VValue@v8@@@Nan@@@Z 000000018002e12c     security_buffer.obj
 0004:00000138       $pdata$?ToBuffer@SecurityBuffer@@SAXAEBV?$FunctionCallbackInfo@VValue@v8@@@Nan@@@Z 000000018002e138     security_buffer.obj
 0004:00000144       $pdata$?Initialize@SecurityBuffer@@SAXV?$Local@VObject@v8@@@v8@@@Z 000000018002e144     security_buffer.obj
 0004:00000150       $pdata$??$Unwrap@VSecurityCredentials@@@ObjectWrap@Nan@@SAPEAVSecurityCredentials@@V?$Local@VObject@v8@@@v8@@@Z 000000018002e150     security_context.obj
 0004:00000150       $pdata$??$Unwrap@VSecurityBuffer@@@ObjectWrap@Nan@@SAPEAVSecurityBuffer@@V?$Local@VObject@v8@@@v8@@@Z 000000018002e150     security_buffer.obj
 0004:00000150       $pdata$??$Unwrap@VSecurityBufferDescriptor@@@ObjectWrap@Nan@@SAPEAVSecurityBufferDescriptor@@V?$Local@VObject@v8@@@v8@@@Z 000000018002e150     security_buffer_descriptor.obj
 0004:00000150       $pdata$??$Unwrap@VSecurityContext@@@ObjectWrap@Nan@@SAPEAVSecurityContext@@V?$Local@VObject@v8@@@v8@@@Z 000000018002e150     security_context.obj
 0004:0000015c       $pdata$??0SecurityBufferDescriptor@@QEAA@AEBV?$Persistent@VArray@v8@@V?$NonCopyablePersistentTraits@VArray@v8@@@2@@Nan@@@Z 000000018002e15c     security_buffer_descriptor.obj
 0004:00000168       $pdata$?bufferSize@SecurityBufferDescriptor@@QEAA_KXZ 000000018002e168     security_buffer_descriptor.obj
 0004:00000174       $pdata$2$?bufferSize@SecurityBufferDescriptor@@QEAA_KXZ 000000018002e174     security_buffer_descriptor.obj
 0004:00000180       $pdata$3$?bufferSize@SecurityBufferDescriptor@@QEAA_KXZ 000000018002e180     security_buffer_descriptor.obj
 0004:0000018c       $pdata$?toBuffer@SecurityBufferDescriptor@@QEAAPEADXZ 000000018002e18c     security_buffer_descriptor.obj
 0004:00000198       $pdata$?New@SecurityBufferDescriptor@@CAXAEBV?$FunctionCallbackInfo@VValue@v8@@@Nan@@@Z 000000018002e198     security_buffer_descriptor.obj
 0004:000001a4       $pdata$1$?New@SecurityBufferDescriptor@@CAXAEBV?$FunctionCallbackInfo@VValue@v8@@@Nan@@@Z 000000018002e1a4     security_buffer_descriptor.obj
 0004:000001b0       $pdata$?ToBuffer@SecurityBufferDescriptor@@SAXAEBV?$FunctionCallbackInfo@VValue@v8@@@Nan@@@Z 000000018002e1b0     security_buffer_descriptor.obj
 0004:000001bc       $pdata$?Initialize@SecurityBufferDescriptor@@SAXV?$Local@VObject@v8@@@v8@@@Z 000000018002e1bc     security_buffer_descriptor.obj
 0004:000001c8       $pdata$?GetterCallbackWrapper@imp@Nan@@YAXV?$Local@VName@v8@@@v8@@AEBV?$PropertyCallbackInfo@VValue@v8@@@4@@Z 000000018002e1c8     security_context.obj
 0004:000001d4       $pdata$??0Callback@Nan@@QEAA@AEBV?$Local@VFunction@v8@@@v8@@@Z 000000018002e1d4     security_context.obj
 0004:000001e0       $pdata$?SetAccessor@Nan@@YAXV?$Local@VObjectTemplate@v8@@@v8@@V?$Local@VString@v8@@@3@P6AX1AEBV?$PropertyCallbackInfo@VValue@v8@@@1@@ZP6AX1V?$Local@VValue@v8@@@3@AEBV?$PropertyCallbackInfo@X@1@@Z4W4AccessControl@3@W4PropertyAttribute@3@V?$Local@VAccessorSignature@v8@@@3@@Z 000000018002e1e0     security_context.obj
 0004:000001ec       $pdata$?After@@YAXPEAUuv_work_s@@@Z 000000018002e1ec     security_context.obj
 0004:000001f8       $pdata$1$?After@@YAXPEAUuv_work_s@@@Z 000000018002e1f8     security_context.obj
 0004:00000204       $pdata$2$?After@@YAXPEAUuv_work_s@@@Z 000000018002e204     security_context.obj
 0004:00000210       $pdata$??_GSecurityContext@@UEAAPEAXI@Z 000000018002e210     security_context.obj
 0004:0000021c       $pdata$??1SecurityContext@@UEAA@XZ 000000018002e21c     security_context.obj
 0004:00000228       $pdata$?New@SecurityContext@@SAXAEBV?$FunctionCallbackInfo@VValue@v8@@@Nan@@@Z 000000018002e228     security_context.obj
 0004:00000234       $pdata$?_initializeContext@@YAXPEAVWorker@@@Z 000000018002e234     security_context.obj
 0004:00000240       $pdata$?_map_decryptMessage@@YA?AV?$Local@VValue@v8@@@v8@@PEAVWorker@@@Z 000000018002e240     security_context.obj
 0004:00000240       $pdata$?_map_initializeContext@@YA?AV?$Local@VValue@v8@@@v8@@PEAVWorker@@@Z 000000018002e240     security_context.obj
 0004:00000240       $pdata$?_map_encryptMessage@@YA?AV?$Local@VValue@v8@@@v8@@PEAVWorker@@@Z 000000018002e240     security_context.obj
 0004:00000240       $pdata$?_map_initializeContextStep@@YA?AV?$Local@VValue@v8@@@v8@@PEAVWorker@@@Z 000000018002e240     security_context.obj
 0004:0000024c       $pdata$?InitializeContext@SecurityContext@@SAXAEBV?$FunctionCallbackInfo@VValue@v8@@@Nan@@@Z 000000018002e24c     security_context.obj
 0004:00000258       $pdata$1$?InitializeContext@SecurityContext@@SAXAEBV?$FunctionCallbackInfo@VValue@v8@@@Nan@@@Z 000000018002e258     security_context.obj
 0004:00000264       $pdata$2$?InitializeContext@SecurityContext@@SAXAEBV?$FunctionCallbackInfo@VValue@v8@@@Nan@@@Z 000000018002e264     security_context.obj
 0004:00000270       $pdata$3$?InitializeContext@SecurityContext@@SAXAEBV?$FunctionCallbackInfo@VValue@v8@@@Nan@@@Z 000000018002e270     security_context.obj
 0004:0000027c       $pdata$?PayloadGetter@SecurityContext@@SAXV?$Local@VString@v8@@@v8@@AEBV?$PropertyCallbackInfo@VValue@v8@@@Nan@@@Z 000000018002e27c     security_context.obj
 0004:00000288       $pdata$?HasContextGetter@SecurityContext@@SAXV?$Local@VString@v8@@@v8@@AEBV?$PropertyCallbackInfo@VValue@v8@@@Nan@@@Z 000000018002e288     security_context.obj
 0004:00000294       $pdata$?_initializeContextStep@@YAXPEAVWorker@@@Z 000000018002e294     security_context.obj
 0004:000002a0       $pdata$7$?_initializeContextStep@@YAXPEAVWorker@@@Z 000000018002e2a0     security_context.obj
 0004:000002ac       $pdata$8$?_initializeContextStep@@YAXPEAVWorker@@@Z 000000018002e2ac     security_context.obj
 0004:000002b8       $pdata$9$?_initializeContextStep@@YAXPEAVWorker@@@Z 000000018002e2b8     security_context.obj
 0004:000002c4       $pdata$?InitalizeStep@SecurityContext@@SAXAEBV?$FunctionCallbackInfo@VValue@v8@@@Nan@@@Z 000000018002e2c4     security_context.obj
 0004:000002d0       $pdata$1$?InitalizeStep@SecurityContext@@SAXAEBV?$FunctionCallbackInfo@VValue@v8@@@Nan@@@Z 000000018002e2d0     security_context.obj
 0004:000002dc       $pdata$2$?InitalizeStep@SecurityContext@@SAXAEBV?$FunctionCallbackInfo@VValue@v8@@@Nan@@@Z 000000018002e2dc     security_context.obj
 0004:000002e8       $pdata$3$?InitalizeStep@SecurityContext@@SAXAEBV?$FunctionCallbackInfo@VValue@v8@@@Nan@@@Z 000000018002e2e8     security_context.obj
 0004:000002f4       $pdata$?_encryptMessage@@YAXPEAVWorker@@@Z 000000018002e2f4     security_context.obj
 0004:00000300       $pdata$0$?_encryptMessage@@YAXPEAVWorker@@@Z 000000018002e300     security_context.obj
 0004:0000030c       $pdata$1$?_encryptMessage@@YAXPEAVWorker@@@Z 000000018002e30c     security_context.obj
 0004:00000318       $pdata$?EncryptMessage@SecurityContext@@SAXAEBV?$FunctionCallbackInfo@VValue@v8@@@Nan@@@Z 000000018002e318     security_context.obj
 0004:00000324       $pdata$1$?EncryptMessage@SecurityContext@@SAXAEBV?$FunctionCallbackInfo@VValue@v8@@@Nan@@@Z 000000018002e324     security_context.obj
 0004:00000330       $pdata$2$?EncryptMessage@SecurityContext@@SAXAEBV?$FunctionCallbackInfo@VValue@v8@@@Nan@@@Z 000000018002e330     security_context.obj
 0004:0000033c       $pdata$?_decryptMessage@@YAXPEAVWorker@@@Z 000000018002e33c     security_context.obj
 0004:00000348       $pdata$?DecryptMessage@SecurityContext@@SAXAEBV?$FunctionCallbackInfo@VValue@v8@@@Nan@@@Z 000000018002e348     security_context.obj
 0004:00000354       $pdata$1$?DecryptMessage@SecurityContext@@SAXAEBV?$FunctionCallbackInfo@VValue@v8@@@Nan@@@Z 000000018002e354     security_context.obj
 0004:00000360       $pdata$2$?DecryptMessage@SecurityContext@@SAXAEBV?$FunctionCallbackInfo@VValue@v8@@@Nan@@@Z 000000018002e360     security_context.obj
 0004:0000036c       $pdata$?_queryContextAttributes@@YAXPEAVWorker@@@Z 000000018002e36c     security_context.obj
 0004:00000378       $pdata$?_map_queryContextAttributes@@YA?AV?$Local@VValue@v8@@@v8@@PEAVWorker@@@Z 000000018002e378     security_context.obj
 0004:00000384       $pdata$0$?_map_queryContextAttributes@@YA?AV?$Local@VValue@v8@@@v8@@PEAVWorker@@@Z 000000018002e384     security_context.obj
 0004:00000390       $pdata$1$?_map_queryContextAttributes@@YA?AV?$Local@VValue@v8@@@v8@@PEAVWorker@@@Z 000000018002e390     security_context.obj
 0004:0000039c       $pdata$2$?_map_queryContextAttributes@@YA?AV?$Local@VValue@v8@@@v8@@PEAVWorker@@@Z 000000018002e39c     security_context.obj
 0004:000003a8       $pdata$3$?_map_queryContextAttributes@@YA?AV?$Local@VValue@v8@@@v8@@PEAVWorker@@@Z 000000018002e3a8     security_context.obj
 0004:000003b4       $pdata$?QueryContextAttributesA@SecurityContext@@SAXAEBV?$FunctionCallbackInfo@VValue@v8@@@Nan@@@Z 000000018002e3b4     security_context.obj
 0004:000003c0       $pdata$1$?QueryContextAttributesA@SecurityContext@@SAXAEBV?$FunctionCallbackInfo@VValue@v8@@@Nan@@@Z 000000018002e3c0     security_context.obj
 0004:000003cc       $pdata$2$?QueryContextAttributesA@SecurityContext@@SAXAEBV?$FunctionCallbackInfo@VValue@v8@@@Nan@@@Z 000000018002e3cc     security_context.obj
 0004:000003d8       $pdata$?Initialize@SecurityContext@@SAXV?$Local@VObject@v8@@@v8@@@Z 000000018002e3d8     security_context.obj
 0004:000003e4       $pdata$?New@SecurityCredentials@@CAXAEBV?$FunctionCallbackInfo@VValue@v8@@@Nan@@@Z 000000018002e3e4     security_credentials.obj
 0004:000003f0       $pdata$?_authSSPIAquire@@YAXPEAVWorker@@@Z 000000018002e3f0     security_credentials.obj
 0004:000003fc       $pdata$?_map_authSSPIAquire@@YA?AV?$Local@VValue@v8@@@v8@@PEAVWorker@@@Z 000000018002e3fc     security_credentials.obj
 0004:00000408       $pdata$?Aquire@SecurityCredentials@@SAXAEBV?$FunctionCallbackInfo@VValue@v8@@@Nan@@@Z 000000018002e408     security_credentials.obj
 0004:00000414       $pdata$1$?Aquire@SecurityCredentials@@SAXAEBV?$FunctionCallbackInfo@VValue@v8@@@Nan@@@Z 000000018002e414     security_credentials.obj
 0004:00000420       $pdata$2$?Aquire@SecurityCredentials@@SAXAEBV?$FunctionCallbackInfo@VValue@v8@@@Nan@@@Z 000000018002e420     security_credentials.obj
 0004:0000042c       $pdata$?Initialize@SecurityCredentials@@SAXV?$Local@VObject@v8@@@v8@@@Z 000000018002e42c     security_credentials.obj
 0004:00000438       $pdata$?After@SecurityCredentials@@CAXPEAUuv_work_s@@@Z 000000018002e438     security_credentials.obj
 0004:00000444       $pdata$1$?After@SecurityCredentials@@CAXPEAUuv_work_s@@@Z 000000018002e444     security_credentials.obj
 0004:00000450       $pdata$2$?After@SecurityCredentials@@CAXPEAUuv_work_s@@@Z 000000018002e450     security_credentials.obj
 0004:0000045c       $pdata$load_exe_hook       000000018002e45c     win_delay_load_hook.obj
 0004:00000480       $pdata$??2@YAPEAX_K@Z      000000018002e480     LIBCMT:new_scalar.obj
 0004:0000048c       $pdata$?dllmain_crt_dispatch@@YAHQEAUHINSTANCE__@@KQEAX@Z 000000018002e48c     LIBCMT:dll_dllmain.obj
 0004:00000498       $pdata$?dllmain_crt_process_attach@@YAHQEAUHINSTANCE__@@QEAX@Z 000000018002e498     LIBCMT:dll_dllmain.obj
 0004:000004a4       $pdata$?dllmain_crt_process_detach@@YAH_N@Z 000000018002e4a4     LIBCMT:dll_dllmain.obj
 0004:000004b0       $pdata$?dllmain_dispatch@@YAHQEAUHINSTANCE__@@KQEAX@Z 000000018002e4b0     LIBCMT:dll_dllmain.obj
 0004:000004bc       $pdata$_DllMainCRTStartup  000000018002e4bc     LIBCMT:dll_dllmain.obj
 0004:000004c8       $pdata$__raise_securityfailure 000000018002e4c8     LIBCMT:gs_report.obj
 0004:000004d4       $pdata$__report_gsfailure  000000018002e4d4     LIBCMT:gs_report.obj
 0004:000004e0       $pdata$??0bad_alloc@std@@QEAA@AEBV01@@Z 000000018002e4e0     LIBCMT:throw_bad_alloc.obj
 0004:000004ec       $pdata$??0bad_array_new_length@std@@QEAA@AEBV01@@Z 000000018002e4ec     LIBCMT:throw_bad_alloc.obj
 0004:000004f8       $pdata$??0exception@std@@QEAA@AEBV01@@Z 000000018002e4f8     LIBCMT:throw_bad_alloc.obj
 0004:00000504       $pdata$??_Gbad_alloc@std@@UEAAPEAXI@Z 000000018002e504     LIBCMT:throw_bad_alloc.obj
 0004:00000504       $pdata$??_Gbad_array_new_length@std@@UEAAPEAXI@Z 000000018002e504     LIBCMT:throw_bad_alloc.obj
 0004:00000504       $pdata$??_Gexception@std@@UEAAPEAXI@Z 000000018002e504     LIBCMT:throw_bad_alloc.obj
 0004:00000510       $pdata$?__scrt_throw_std_bad_alloc@@YAXXZ 000000018002e510     LIBCMT:throw_bad_alloc.obj
 0004:0000051c       $pdata$?__scrt_throw_std_bad_array_new_length@@YAXXZ 000000018002e51c     LIBCMT:throw_bad_alloc.obj
 0004:00000528       $pdata$__security_init_cookie 000000018002e528     LIBCMT:gs_support.obj
 0004:00000534       $pdata$__scrt_is_nonwritable_in_current_image 000000018002e534     LIBCMT:utility.obj
 0004:00000540       $pdata$__scrt_dllmain_after_initialize_c 000000018002e540     LIBCMT:utility_static.obj
 0004:0000054c       $pdata$__scrt_dllmain_crt_thread_attach 000000018002e54c     LIBCMT:utility_static.obj
 0004:00000558       $pdata$__scrt_dllmain_crt_thread_detach 000000018002e558     LIBCMT:utility_static.obj
 0004:00000564       $pdata$__scrt_dllmain_exception_filter 000000018002e564     LIBCMT:utility_static.obj
 0004:00000570       $pdata$__scrt_dllmain_uninitialize_c 000000018002e570     LIBCMT:utility_static.obj
 0004:0000057c       $pdata$__scrt_dllmain_uninitialize_critical 000000018002e57c     LIBCMT:utility_static.obj
 0004:00000588       $pdata$__scrt_initialize_crt 000000018002e588     LIBCMT:utility_static.obj
 0004:00000594       $pdata$__scrt_uninitialize_crt 000000018002e594     LIBCMT:utility_static.obj
 0004:000005a0       $pdata$__scrt_fastfail     000000018002e5a0     LIBCMT:utility_desktop.obj
 0004:000005ac       $pdata$_RTC_Initialize     000000018002e5ac     LIBCMT:initsect.obj
 0004:000005b8       $pdata$_RTC_Terminate      000000018002e5b8     LIBCMT:initsect.obj
 0004:000005c4       $pdata$??_Gtype_info@@UEAAPEAXI@Z 000000018002e5c4     LIBCMT:std_type_info_static.obj
 0004:000005d0       $pdata$__isa_available_init 000000018002e5d0     LIBCMT:cpu_disp.obj
 0004:000005dc       $pdata$__C_specific_handler 000000018002e5dc     libvcruntime:chandler.obj
 0004:00000618       $pdata$?try_get_function@@YAPEAXW4function_id@?A0x20227a44@@QEBDQEBW4module_id@2@2@Z 000000018002e618     libvcruntime:winapi_downlevel.obj
 0004:00000624       $pdata$__vcrt_CapturePreviousContext 000000018002e624     libvcruntime:winapi_downlevel.obj
 0004:00000630       $pdata$__vcrt_FlsAlloc     000000018002e630     libvcruntime:winapi_downlevel.obj
 0004:0000063c       $pdata$__vcrt_FlsFree      000000018002e63c     libvcruntime:winapi_downlevel.obj
 0004:00000648       $pdata$__vcrt_FlsGetValue  000000018002e648     libvcruntime:winapi_downlevel.obj
 0004:00000654       $pdata$__vcrt_FlsSetValue  000000018002e654     libvcruntime:winapi_downlevel.obj
 0004:00000660       $pdata$__vcrt_InitializeCriticalSectionEx 000000018002e660     libvcruntime:winapi_downlevel.obj
 0004:0000066c       $pdata$__acrt_TerminateProcess 000000018002e66c     libvcruntime:winapi_downlevel.obj
 0004:0000066c       $pdata$__vcrt_TerminateProcess 000000018002e66c     libvcruntime:winapi_downlevel.obj
 0004:00000678       $pdata$__vcrt_UnhandledException 000000018002e678     libvcruntime:winapi_downlevel.obj
 0004:00000678       $pdata$__acrt_UnhandledException 000000018002e678     libvcruntime:winapi_downlevel.obj
 0004:00000684       $pdata$__vcrt_initialize_winapi_thunks 000000018002e684     libvcruntime:winapi_downlevel.obj
 0004:00000690       $pdata$__vcrt_uninitialize_winapi_thunks 000000018002e690     libvcruntime:winapi_downlevel.obj
 0004:0000069c       $pdata$__std_exception_copy 000000018002e69c     libvcruntime:std_exception.obj
 0004:000006a8       $pdata$__std_exception_destroy 000000018002e6a8     libvcruntime:std_exception.obj
 0004:000006b4       $pdata$_CxxThrowException  000000018002e6b4     libvcruntime:throw.obj
 0004:000006c0       $pdata$__vcrt_cleanup_type_info_names 000000018002e6c0     libvcruntime:std_type_info.obj
 0004:000006cc       $pdata$__vcrt_initialize   000000018002e6cc     libvcruntime:initialization.obj
 0004:000006d8       $pdata$__vcrt_thread_attach 000000018002e6d8     libvcruntime:initialization.obj
 0004:000006e4       $pdata$__vcrt_thread_detach 000000018002e6e4     libvcruntime:initialization.obj
 0004:000006f0       $pdata$__vcrt_uninitialize 000000018002e6f0     libvcruntime:initialization.obj
 0004:000006fc       $pdata$__vcrt_uninitialize_critical 000000018002e6fc     libvcruntime:initialization.obj
 0004:00000708       $pdata$?terminate@@YAXXZ   000000018002e708     libvcruntime:hooks.obj
 0004:00000720       $pdata$__vcrt_freefls      000000018002e720     libvcruntime:per_thread_data.obj
 0004:0000072c       $pdata$__vcrt_freeptd      000000018002e72c     libvcruntime:per_thread_data.obj
 0004:00000738       $pdata$__vcrt_getptd       000000018002e738     libvcruntime:per_thread_data.obj
 0004:00000744       $pdata$__vcrt_getptd_noexit 000000018002e744     libvcruntime:per_thread_data.obj
 0004:00000750       $pdata$__vcrt_initialize_ptd 000000018002e750     libvcruntime:per_thread_data.obj
 0004:0000075c       $pdata$__vcrt_uninitialize_ptd 000000018002e75c     libvcruntime:per_thread_data.obj
 0004:00000768       $pdata$__vcrt_initialize_locks 000000018002e768     libvcruntime:locks.obj
 0004:00000774       $pdata$__vcrt_uninitialize_locks 000000018002e774     libvcruntime:locks.obj
 0004:00000780       $pdata$__vcrt_initialize_pure_virtual_call_handler 000000018002e780     libvcruntime:purevirt_data.obj
 0004:0000078c       $pdata$??$common_assert_to_message_box@_W@@YAXQEB_W0IQEAX@Z 000000018002e78c     libappcrt:assert.obj
 0004:00000798       $pdata$??$common_assert_to_message_box_build_string@_W@@YAXQEA_W_KQEB_W2IQEAX@Z 000000018002e798     libappcrt:assert.obj
 0004:000007a4       $pdata$??$common_assert_to_stderr@_W@@YAXQEB_W0I@Z 000000018002e7a4     libappcrt:assert.obj
 0004:000007b0       $pdata$_wassert            000000018002e7b0     libappcrt:assert.obj
 0004:000007bc       $pdata$fwprintf            000000018002e7bc     libappcrt:assert.obj
 0004:000007c8       $pdata$swprintf            000000018002e7c8     libappcrt:assert.obj
 0004:000007d4       $pdata$?common_onexit@@YAP6AHXZQEAU_onexit_table_t@@Q6AHXZ@Z 000000018002e7d4     libappcrt:onexit.obj
 0004:000007e0       $pdata$_execute_onexit_table 000000018002e7e0     libappcrt:onexit.obj
 0004:000007ec       $pdata$_initialize_onexit_table 000000018002e7ec     libappcrt:onexit.obj
 0004:000007f8       $pdata$_register_onexit_function 000000018002e7f8     libappcrt:onexit.obj
 0004:00000804       $pdata$atexit              000000018002e804     libappcrt:onexit.obj
 0004:00000810       $pdata$__acrt_initialize_stdio 000000018002e810     libappcrt:_file.obj
 0004:0000081c       $pdata$__acrt_uninitialize_stdio 000000018002e81c     libappcrt:_file.obj
 0004:00000828       $pdata$??$?RV<lambda_375f2059ece04f1a3491234976883daf>@@AEAV<lambda_8b97db1b1a74c9d5d2f05201ee762dcb>@@V<lambda_d91a30588a32db60f761b18b0c09ab11>@@@?$__crt_seh_guarded_call@H@@QEAAH$$QEAV<lambda_375f2059ece04f1a3491234976883daf>@@AEAV<lambda_8b97db1b1a74c9d5d2f05201ee762dcb>@@$$QEAV<lambda_d91a30588a32db60f761b18b0c09ab11>@@@Z 000000018002e828     libappcrt:output.obj
 0004:00000834       $pdata$??$?RV<lambda_f44018d659a65f962de91447066bfbb0>@@AEAV<lambda_c2e2a780365980b01940295d90109018>@@V<lambda_7f98fe85b6c52e814278db065628b656>@@@?$__crt_seh_guarded_call@H@@QEAAH$$QEAV<lambda_f44018d659a65f962de91447066bfbb0>@@AEAV<lambda_c2e2a780365980b01940295d90109018>@@$$QEAV<lambda_7f98fe85b6c52e814278db065628b656>@@@Z 000000018002e834     libappcrt:output.obj
 0004:00000840       $pdata$??$ensure_buffer_is_big_enough@D@formatting_buffer@__crt_stdio_output@@QEAA_N_K@Z 000000018002e840     libappcrt:output.obj
 0004:0000084c       $pdata$??$write_multiple_characters@V?$stream_output_adapter@D@__crt_stdio_output@@D@__crt_stdio_output@@YAXAEBV?$stream_output_adapter@D@0@DHQEAH@Z 000000018002e84c     libappcrt:output.obj
 0004:00000858       $pdata$??$write_multiple_characters@V?$stream_output_adapter@_W@__crt_stdio_output@@D@__crt_stdio_output@@YAXAEBV?$stream_output_adapter@_W@0@DHQEAH@Z 000000018002e858     libappcrt:output.obj
 0004:00000864       $pdata$??$write_multiple_characters@V?$string_output_adapter@_W@__crt_stdio_output@@D@__crt_stdio_output@@YAXAEBV?$string_output_adapter@_W@0@DHQEAH@Z 000000018002e864     libappcrt:output.obj
 0004:00000870       $pdata$??0?$output_processor@DV?$stream_output_adapter@D@__crt_stdio_output@@V?$standard_base@DV?$stream_output_adapter@D@__crt_stdio_output@@@2@@__crt_stdio_output@@QEAA@AEBV?$stream_output_adapter@D@1@_KQEBDQEAU__crt_locale_pointers@@QEAD@Z 000000018002e870     libappcrt:output.obj
 0004:0000087c       $pdata$??0?$output_processor@_WV?$stream_output_adapter@_W@__crt_stdio_output@@V?$standard_base@_WV?$stream_output_adapter@_W@__crt_stdio_output@@@2@@__crt_stdio_output@@QEAA@AEBV?$stream_output_adapter@_W@1@_KQEB_WQEAU__crt_locale_pointers@@QEAD@Z 000000018002e87c     libappcrt:output.obj
 0004:0000087c       $pdata$??0?$output_processor@_WV?$string_output_adapter@_W@__crt_stdio_output@@V?$standard_base@_WV?$string_output_adapter@_W@__crt_stdio_output@@@2@@__crt_stdio_output@@QEAA@AEBV?$string_output_adapter@_W@1@_KQEB_WQEAU__crt_locale_pointers@@QEAD@Z 000000018002e87c     libappcrt:output.obj
 0004:00000888       $pdata$??0_LocaleUpdate@@QEAA@QEAU__crt_locale_pointers@@@Z 000000018002e888     libappcrt:output.obj
 0004:00000894       $pdata$??R<lambda_8b97db1b1a74c9d5d2f05201ee762dcb>@@QEBAHXZ 000000018002e894     libappcrt:output.obj
 0004:000008a0       $pdata$??R<lambda_c2e2a780365980b01940295d90109018>@@QEBAHXZ 000000018002e8a0     libappcrt:output.obj
 0004:000008ac       $pdata$?force_decimal_point@__crt_stdio_output@@YAXPEADQEAU__crt_locale_pointers@@@Z 000000018002e8ac     libappcrt:output.obj
 0004:000008b8       $pdata$?parse_int_from_format_string@?$output_processor@DV?$stream_output_adapter@D@__crt_stdio_output@@V?$standard_base@DV?$stream_output_adapter@D@__crt_stdio_output@@@2@@__crt_stdio_output@@AEAA_NQEAH@Z 000000018002e8b8     libappcrt:output.obj
 0004:000008c4       $pdata$?parse_int_from_format_string@?$output_processor@_WV?$string_output_adapter@_W@__crt_stdio_output@@V?$standard_base@_WV?$string_output_adapter@_W@__crt_stdio_output@@@2@@__crt_stdio_output@@AEAA_NQEAH@Z 000000018002e8c4     libappcrt:output.obj
 0004:000008c4       $pdata$?parse_int_from_format_string@?$output_processor@_WV?$stream_output_adapter@_W@__crt_stdio_output@@V?$standard_base@_WV?$stream_output_adapter@_W@__crt_stdio_output@@@2@@__crt_stdio_output@@AEAA_NQEAH@Z 000000018002e8c4     libappcrt:output.obj
 0004:000008d0       $pdata$?process@?$output_processor@DV?$stream_output_adapter@D@__crt_stdio_output@@V?$standard_base@DV?$stream_output_adapter@D@__crt_stdio_output@@@2@@__crt_stdio_output@@QEAAHXZ 000000018002e8d0     libappcrt:output.obj
 0004:000008dc       $pdata$?process@?$output_processor@_WV?$stream_output_adapter@_W@__crt_stdio_output@@V?$standard_base@_WV?$stream_output_adapter@_W@__crt_stdio_output@@@2@@__crt_stdio_output@@QEAAHXZ 000000018002e8dc     libappcrt:output.obj
 0004:000008e8       $pdata$?process@?$output_processor@_WV?$string_output_adapter@_W@__crt_stdio_output@@V?$standard_base@_WV?$string_output_adapter@_W@__crt_stdio_output@@@2@@__crt_stdio_output@@QEAAHXZ 000000018002e8e8     libappcrt:output.obj
 0004:000008f4       $pdata$?state_case_normal_common@?$output_processor@DV?$stream_output_adapter@D@__crt_stdio_output@@V?$standard_base@DV?$stream_output_adapter@D@__crt_stdio_output@@@2@@__crt_stdio_output@@AEAA_NXZ 000000018002e8f4     libappcrt:output.obj
 0004:00000900       $pdata$?state_case_normal_tchar@?$output_processor@DV?$stream_output_adapter@D@__crt_stdio_output@@V?$standard_base@DV?$stream_output_adapter@D@__crt_stdio_output@@@2@@__crt_stdio_output@@AEAA_ND@Z 000000018002e900     libappcrt:output.obj
 0004:0000090c       $pdata$?state_case_size@?$output_processor@DV?$stream_output_adapter@D@__crt_stdio_output@@V?$standard_base@DV?$stream_output_adapter@D@__crt_stdio_output@@@2@@__crt_stdio_output@@AEAA_NXZ 000000018002e90c     libappcrt:output.obj
 0004:00000918       $pdata$?state_case_size@?$output_processor@_WV?$stream_output_adapter@_W@__crt_stdio_output@@V?$standard_base@_WV?$stream_output_adapter@_W@__crt_stdio_output@@@2@@__crt_stdio_output@@AEAA_NXZ 000000018002e918     libappcrt:output.obj
 0004:00000924       $pdata$?state_case_size@?$output_processor@_WV?$string_output_adapter@_W@__crt_stdio_output@@V?$standard_base@_WV?$string_output_adapter@_W@__crt_stdio_output@@@2@@__crt_stdio_output@@AEAA_NXZ 000000018002e924     libappcrt:output.obj
 0004:00000930       $pdata$?state_case_type@?$output_processor@DV?$stream_output_adapter@D@__crt_stdio_output@@V?$standard_base@DV?$stream_output_adapter@D@__crt_stdio_output@@@2@@__crt_stdio_output@@AEAA_NXZ 000000018002e930     libappcrt:output.obj
 0004:0000093c       $pdata$?state_case_type@?$output_processor@_WV?$stream_output_adapter@_W@__crt_stdio_output@@V?$standard_base@_WV?$stream_output_adapter@_W@__crt_stdio_output@@@2@@__crt_stdio_output@@AEAA_NXZ 000000018002e93c     libappcrt:output.obj
 0004:00000948       $pdata$?state_case_type@?$output_processor@_WV?$string_output_adapter@_W@__crt_stdio_output@@V?$standard_base@_WV?$string_output_adapter@_W@__crt_stdio_output@@@2@@__crt_stdio_output@@AEAA_NXZ 000000018002e948     libappcrt:output.obj
 0004:00000954       $pdata$?type_case_Z@?$output_processor@DV?$stream_output_adapter@D@__crt_stdio_output@@V?$standard_base@DV?$stream_output_adapter@D@__crt_stdio_output@@@2@@__crt_stdio_output@@AEAA_NXZ 000000018002e954     libappcrt:output.obj
 0004:00000960       $pdata$?type_case_Z@?$output_processor@_WV?$string_output_adapter@_W@__crt_stdio_output@@V?$standard_base@_WV?$string_output_adapter@_W@__crt_stdio_output@@@2@@__crt_stdio_output@@AEAA_NXZ 000000018002e960     libappcrt:output.obj
 0004:00000960       $pdata$?type_case_Z@?$output_processor@_WV?$stream_output_adapter@_W@__crt_stdio_output@@V?$standard_base@_WV?$stream_output_adapter@_W@__crt_stdio_output@@@2@@__crt_stdio_output@@AEAA_NXZ 000000018002e960     libappcrt:output.obj
 0004:0000096c       $pdata$?type_case_a@?$output_processor@DV?$stream_output_adapter@D@__crt_stdio_output@@V?$standard_base@DV?$stream_output_adapter@D@__crt_stdio_output@@@2@@__crt_stdio_output@@AEAA_NXZ 000000018002e96c     libappcrt:output.obj
 0004:00000978       $pdata$?type_case_a@?$output_processor@_WV?$stream_output_adapter@_W@__crt_stdio_output@@V?$standard_base@_WV?$stream_output_adapter@_W@__crt_stdio_output@@@2@@__crt_stdio_output@@AEAA_NXZ 000000018002e978     libappcrt:output.obj
 0004:00000978       $pdata$?type_case_a@?$output_processor@_WV?$string_output_adapter@_W@__crt_stdio_output@@V?$standard_base@_WV?$string_output_adapter@_W@__crt_stdio_output@@@2@@__crt_stdio_output@@AEAA_NXZ 000000018002e978     libappcrt:output.obj
 0004:00000984       $pdata$?type_case_c_tchar@?$output_processor@DV?$stream_output_adapter@D@__crt_stdio_output@@V?$standard_base@DV?$stream_output_adapter@D@__crt_stdio_output@@@2@@__crt_stdio_output@@AEAA_ND@Z 000000018002e984     libappcrt:output.obj
 0004:00000990       $pdata$?type_case_c_tchar@?$output_processor@_WV?$stream_output_adapter@_W@__crt_stdio_output@@V?$standard_base@_WV?$stream_output_adapter@_W@__crt_stdio_output@@@2@@__crt_stdio_output@@AEAA_N_W@Z 000000018002e990     libappcrt:output.obj
 0004:00000990       $pdata$?type_case_c_tchar@?$output_processor@_WV?$string_output_adapter@_W@__crt_stdio_output@@V?$standard_base@_WV?$string_output_adapter@_W@__crt_stdio_output@@@2@@__crt_stdio_output@@AEAA_N_W@Z 000000018002e990     libappcrt:output.obj
 0004:0000099c       $pdata$?type_case_integer@?$output_processor@DV?$stream_output_adapter@D@__crt_stdio_output@@V?$standard_base@DV?$stream_output_adapter@D@__crt_stdio_output@@@2@@__crt_stdio_output@@AEAA_NI_N@Z 000000018002e99c     libappcrt:output.obj
 0004:0000099c       $pdata$?type_case_integer@?$output_processor@_WV?$stream_output_adapter@_W@__crt_stdio_output@@V?$standard_base@_WV?$stream_output_adapter@_W@__crt_stdio_output@@@2@@__crt_stdio_output@@AEAA_NI_N@Z 000000018002e99c     libappcrt:output.obj
 0004:0000099c       $pdata$?type_case_integer@?$output_processor@_WV?$string_output_adapter@_W@__crt_stdio_output@@V?$standard_base@_WV?$string_output_adapter@_W@__crt_stdio_output@@@2@@__crt_stdio_output@@AEAA_NI_N@Z 000000018002e99c     libappcrt:output.obj
 0004:000009a8       $pdata$?type_case_n@?$output_processor@_WV?$stream_output_adapter@_W@__crt_stdio_output@@V?$standard_base@_WV?$stream_output_adapter@_W@__crt_stdio_output@@@2@@__crt_stdio_output@@AEAA_NXZ 000000018002e9a8     libappcrt:output.obj
 0004:000009a8       $pdata$?type_case_n@?$output_processor@DV?$stream_output_adapter@D@__crt_stdio_output@@V?$standard_base@DV?$stream_output_adapter@D@__crt_stdio_output@@@2@@__crt_stdio_output@@AEAA_NXZ 000000018002e9a8     libappcrt:output.obj
 0004:000009a8       $pdata$?type_case_n@?$output_processor@_WV?$string_output_adapter@_W@__crt_stdio_output@@V?$standard_base@_WV?$string_output_adapter@_W@__crt_stdio_output@@@2@@__crt_stdio_output@@AEAA_NXZ 000000018002e9a8     libappcrt:output.obj
 0004:000009b4       $pdata$?type_case_s@?$output_processor@DV?$stream_output_adapter@D@__crt_stdio_output@@V?$standard_base@DV?$stream_output_adapter@D@__crt_stdio_output@@@2@@__crt_stdio_output@@AEAA_NXZ 000000018002e9b4     libappcrt:output.obj
 0004:000009c0       $pdata$?type_case_s@?$output_processor@_WV?$stream_output_adapter@_W@__crt_stdio_output@@V?$standard_base@_WV?$stream_output_adapter@_W@__crt_stdio_output@@@2@@__crt_stdio_output@@AEAA_NXZ 000000018002e9c0     libappcrt:output.obj
 0004:000009c0       $pdata$?type_case_s@?$output_processor@_WV?$string_output_adapter@_W@__crt_stdio_output@@V?$standard_base@_WV?$string_output_adapter@_W@__crt_stdio_output@@@2@@__crt_stdio_output@@AEAA_NXZ 000000018002e9c0     libappcrt:output.obj
 0004:000009cc       $pdata$?validate_stream_is_ansi_if_required@?$__acrt_stdio_char_traits@D@@SA_NQEAU_iobuf@@@Z 000000018002e9cc     libappcrt:output.obj
 0004:000009d8       $pdata$?write_stored_string_tchar@?$output_processor@DV?$stream_output_adapter@D@__crt_stdio_output@@V?$standard_base@DV?$stream_output_adapter@D@__crt_stdio_output@@@2@@__crt_stdio_output@@AEAA_ND@Z 000000018002e9d8     libappcrt:output.obj
 0004:000009e4       $pdata$?write_stored_string_tchar@?$output_processor@_WV?$stream_output_adapter@_W@__crt_stdio_output@@V?$standard_base@_WV?$stream_output_adapter@_W@__crt_stdio_output@@@2@@__crt_stdio_output@@AEAA_N_W@Z 000000018002e9e4     libappcrt:output.obj
 0004:000009f0       $pdata$?write_stored_string_tchar@?$output_processor@_WV?$string_output_adapter@_W@__crt_stdio_output@@V?$standard_base@_WV?$string_output_adapter@_W@__crt_stdio_output@@@2@@__crt_stdio_output@@AEAA_N_W@Z 000000018002e9f0     libappcrt:output.obj
 0004:000009fc       $pdata$?write_string@?$stream_output_adapter@D@__crt_stdio_output@@QEBAXQEBDHQEAH1@Z 000000018002e9fc     libappcrt:output.obj
 0004:00000a08       $pdata$?write_string@?$stream_output_adapter@_W@__crt_stdio_output@@QEBAXQEB_WHQEAH1@Z 000000018002ea08     libappcrt:output.obj
 0004:00000a14       $pdata$?write_string@?$string_output_adapter@_W@__crt_stdio_output@@QEBAXQEB_WHQEAH1@Z 000000018002ea14     libappcrt:output.obj
 0004:00000a20       $pdata$__stdio_common_vfprintf 000000018002ea20     libappcrt:output.obj
 0004:00000a2c       $pdata$__stdio_common_vfwprintf 000000018002ea2c     libappcrt:output.obj
 0004:00000a38       $pdata$__stdio_common_vswprintf 000000018002ea38     libappcrt:output.obj
 0004:00000a44       $pdata$_strdup             000000018002ea44     libappcrt:strdup.obj
 0004:00000a50       $pdata$_stricmp            000000018002ea50     libappcrt:stricmp.obj
 0004:00000a5c       $pdata$_stricmp_l          000000018002ea5c     libappcrt:stricmp.obj
 0004:00000a68       $pdata$_callnewh           000000018002ea68     libappcrt:new_handler.obj
 0004:00000a74       $pdata$_query_new_handler  000000018002ea74     libappcrt:new_handler.obj
 0004:00000a80       $pdata$_initterm           000000018002ea80     libappcrt:initterm.obj
 0004:00000a8c       $pdata$_initterm_e         000000018002ea8c     libappcrt:initterm.obj
 0004:00000a98       $pdata$_seh_filter_exe     000000018002ea98     libappcrt:exception_filter.obj
 0004:00000aa4       $pdata$?common_exit@@YAXHW4_crt_exit_cleanup_mode@@W4_crt_exit_return_mode@@@Z 000000018002eaa4     libappcrt:exit.obj
 0004:00000ab0       $pdata$?try_cor_exit_process@@YAXI@Z 000000018002eab0     libappcrt:exit.obj
 0004:00000abc       $pdata$initialize_c        000000018002eabc     libappcrt:initialization.obj
 0004:00000ac8       $pdata$initialize_pointers 000000018002eac8     libappcrt:initialization.obj
 0004:00000ad4       $pdata$uninitialize_allocated_memory 000000018002ead4     libappcrt:initialization.obj
 0004:00000ae0       $pdata$__acrt_post_initialize 000000018002eae0     libappcrt:initialization.obj
 0004:00000aec       $pdata$__acrt_thread_attach 000000018002eaec     libappcrt:initialization.obj
 0004:00000af8       $pdata$__acrt_thread_detach 000000018002eaf8     libappcrt:initialization.obj
 0004:00000b04       $pdata$__acrt_uninitialize_critical 000000018002eb04     libappcrt:initialization.obj
 0004:00000b10       $pdata$strcpy_s            000000018002eb10     libappcrt:strcpy_s.obj
 0004:00000b1c       $pdata$_free_base          000000018002eb1c     libappcrt:free_base.obj
 0004:00000b28       $pdata$_malloc_base        000000018002eb28     libappcrt:malloc_base.obj
 0004:00000b34       $pdata$abort               000000018002eb34     libappcrt:abort.obj
 0004:00000b40       $pdata$_calloc_base        000000018002eb40     libappcrt:calloc_base.obj
 0004:00000b4c       $pdata$__acrt_report_runtime_error 000000018002eb4c     libappcrt:report_runtime_error.obj
 0004:00000b58       $pdata$__acrt_report_runtime_error_and_exit 000000018002eb58     libappcrt:report_runtime_error.obj
 0004:00000b64       $pdata$write_string_to_console 000000018002eb64     libappcrt:report_runtime_error.obj
 0004:00000b70       $pdata$__acrt_call_reportfault 000000018002eb70     libappcrt:invalid_parameter.obj
 0004:00000b7c       $pdata$_invalid_parameter  000000018002eb7c     libappcrt:invalid_parameter.obj
 0004:00000b88       $pdata$_invalid_parameter_noinfo 000000018002eb88     libappcrt:invalid_parameter.obj
 0004:00000b94       $pdata$_invoke_watson      000000018002eb94     libappcrt:invalid_parameter.obj
 0004:00000ba0       $pdata$__acrt_errno_map_os_error 000000018002eba0     libappcrt:errno.obj
 0004:00000bac       $pdata$__doserrno          000000018002ebac     libappcrt:errno.obj
 0004:00000bb8       $pdata$_errno              000000018002ebb8     libappcrt:errno.obj
 0004:00000bc4       $pdata$wcscat_s            000000018002ebc4     libappcrt:wcscat_s.obj
 0004:00000bd0       $pdata$wcscpy_s            000000018002ebd0     libappcrt:wcscpy_s.obj
 0004:00000bdc       $pdata$wcsncat_s           000000018002ebdc     libappcrt:wcsncat_s.obj
 0004:00000be8       $pdata$??$common_xtox@K_W@@YAHKQEA_W_KI_N@Z 000000018002ebe8     libappcrt:xtoa.obj
 0004:00000bf4       $pdata$??$common_xtox_s@K_W@@YAHKQEA_W_KI_N@Z 000000018002ebf4     libappcrt:xtoa.obj
 0004:00000c00       $pdata$_itow_s             000000018002ec00     libappcrt:xtoa.obj
 0004:00000c0c       $pdata$_set_error_mode     000000018002ec0c     libappcrt:set_error_mode.obj
 0004:00000c18       $pdata$??$message_box_wait_thread@_W@@YAKQEAX@Z 000000018002ec18     libappcrt:crtmbox.obj
 0004:00000c24       $pdata$?get_message_box_pointers@@YAPEBUmessage_box_pointers@?A0x7bd314f8@@XZ 000000018002ec24     libappcrt:crtmbox.obj
 0004:00000c30       $pdata$?is_interactive@@YA?B_NQEBUmessage_box_pointers@?A0x7bd314f8@@@Z 000000018002ec30     libappcrt:crtmbox.obj
 0004:00000c3c       $pdata$?select_parent_window@@YAPEAUHWND__@@QEBUmessage_box_pointers@?A0x7bd314f8@@@Z 000000018002ec3c     libappcrt:crtmbox.obj
 0004:00000c48       $pdata$__acrt_MessageBoxW  000000018002ec48     libappcrt:crtmbox.obj
 0004:00000c54       $pdata$__acrt_ExitProcess  000000018002ec54     libappcrt:winapi_nonmsdk.obj
 0004:00000c60       $pdata$__acrt_FreeLibrary  000000018002ec60     libappcrt:winapi_nonmsdk.obj
 0004:00000c6c       $pdata$__acrt_GetConsoleMode 000000018002ec6c     libappcrt:winapi_nonmsdk.obj
 0004:00000c78       $pdata$__acrt_GetFileType  000000018002ec78     libappcrt:winapi_nonmsdk.obj
 0004:00000c84       $pdata$__acrt_GetModuleHandleExW 000000018002ec84     libappcrt:winapi_nonmsdk.obj
 0004:00000c90       $pdata$__acrt_GetModuleHandleW 000000018002ec90     libappcrt:winapi_nonmsdk.obj
 0004:00000c9c       $pdata$__acrt_GetStartupInfoW 000000018002ec9c     libappcrt:winapi_nonmsdk.obj
 0004:00000ca8       $pdata$__acrt_GetStdHandle 000000018002eca8     libappcrt:winapi_nonmsdk.obj
 0004:00000cb4       $pdata$__acrt_LoadLibraryExW 000000018002ecb4     libappcrt:winapi_nonmsdk.obj
 0004:00000cc0       $pdata$__acrt_SetStdHandle 000000018002ecc0     libappcrt:winapi_nonmsdk.obj
 0004:00000ccc       $pdata$__acrt_post_initialize_nonmsdk_dependencies 000000018002eccc     libappcrt:winapi_nonmsdk.obj
 0004:00000cd8       $pdata$__acrt_uninitialize_nonmsdk_dependencies 000000018002ecd8     libappcrt:winapi_nonmsdk.obj
 0004:00000ce4       $pdata$get_or_load_module_handle 000000018002ece4     libappcrt:winapi_nonmsdk.obj
 0004:00000cf0       $pdata$__acrt_stdio_flush_nolock 000000018002ecf0     libappcrt:fflush.obj
 0004:00000cfc       $pdata$_fflush_nolock      000000018002ecfc     libappcrt:fflush.obj
 0004:00000d08       $pdata$common_flush_all    000000018002ed08     libappcrt:fflush.obj
 0004:00000d14       $pdata$fflush              000000018002ed14     libappcrt:fflush.obj
 0004:00000d20       $pdata$??$?RV<lambda_748170f0745e8ff1df7bb43bcbf3b33d>@@AEAV<lambda_11f1b9fd45bbe0eb9ff4d0acb58976bf>@@V<lambda_17683df6366aaadc43f3d402e9bdd393>@@@?$__crt_seh_guarded_call@H@@QEAAH$$QEAV<lambda_748170f0745e8ff1df7bb43bcbf3b33d>@@AEAV<lambda_11f1b9fd45bbe0eb9ff4d0acb58976bf>@@$$QEAV<lambda_17683df6366aaadc43f3d402e9bdd393>@@@Z 000000018002ed20     libappcrt:setvbuf.obj
 0004:00000d2c       $pdata$??R<lambda_11f1b9fd45bbe0eb9ff4d0acb58976bf>@@QEBAHXZ 000000018002ed2c     libappcrt:setvbuf.obj
 0004:00000d38       $pdata$setvbuf             000000018002ed38     libappcrt:setvbuf.obj
 0004:00000d44       $pdata$__acrt_get_sigabrt_handler 000000018002ed44     libappcrt:signal.obj
 0004:00000d50       $pdata$raise               000000018002ed50     libappcrt:signal.obj
 0004:00000d5c       $pdata$_recalloc_base      000000018002ed5c     libappcrt:recalloc.obj
 0004:00000d68       $pdata$__acrt_initialize_locks 000000018002ed68     libappcrt:locks.obj
 0004:00000d74       $pdata$__acrt_uninitialize_locks 000000018002ed74     libappcrt:locks.obj
 0004:00000d80       $pdata$?get_kernel32_module_handle@@YAPEAUHINSTANCE__@@XZ 000000018002ed80     libappcrt:winapi_downlevel.obj
 0004:00000d8c       $pdata$__acrt_CaptureCurrentContext 000000018002ed8c     libappcrt:winapi_downlevel.obj
 0004:00000d98       $pdata$__acrt_LCMapStringEx 000000018002ed98     libappcrt:winapi_downlevel.obj
 0004:00000da4       $pdata$__acrt_initialize_downlevel_dependencies 000000018002eda4     libappcrt:winapi_downlevel.obj
 0004:00000db0       $pdata$_fcloseall          000000018002edb0     libappcrt:closeall.obj
 0004:00000dbc       $pdata$__acrt_stdio_free_buffer_nolock 000000018002edbc     libappcrt:_freebuf.obj
 0004:00000dc8       $pdata$?initialize_inherited_file_handles_nolock@@YAXXZ 000000018002edc8     libappcrt:ioinit.obj
 0004:00000dd4       $pdata$?initialize_stdio_handles_nolock@@YAXXZ 000000018002edd4     libappcrt:ioinit.obj
 0004:00000de0       $pdata$__acrt_initialize_lowio 000000018002ede0     libappcrt:ioinit.obj
 0004:00000dec       $pdata$__acrt_uninitialize_lowio 000000018002edec     libappcrt:ioinit.obj
 0004:00000df8       $pdata$isdigit             000000018002edf8     libappcrt:_ctype.obj
 0004:00000e04       $pdata$?internal_isupper_l@@YA_NHQEAU__crt_locale_pointers@@@Z 000000018002ee04     libappcrt:tolower_toupper.obj
 0004:00000e10       $pdata$_tolower_l          000000018002ee10     libappcrt:tolower_toupper.obj
 0004:00000e1c       $pdata$tolower             000000018002ee1c     libappcrt:tolower_toupper.obj
 0004:00000e28       $pdata$strnlen             000000018002ee28     libappcrt:strnlen.obj
 0004:00000e34       $pdata$wcsnlen             000000018002ee34     libappcrt:strnlen.obj
 0004:00000e40       $pdata$??$parse_integer@KV?$c_string_character_source@D@__crt_strtox@@@__crt_strtox@@YAKQEAU__crt_locale_pointers@@V?$c_string_character_source@D@0@H_N@Z 000000018002ee40     libappcrt:strtox.obj
 0004:00000e4c       $pdata$0$??$parse_integer@KV?$c_string_character_source@D@__crt_strtox@@@__crt_strtox@@YAKQEAU__crt_locale_pointers@@V?$c_string_character_source@D@0@H_N@Z 000000018002ee4c     libappcrt:strtox.obj
 0004:00000e58       $pdata$3$??$parse_integer@KV?$c_string_character_source@D@__crt_strtox@@@__crt_strtox@@YAKQEAU__crt_locale_pointers@@V?$c_string_character_source@D@0@H_N@Z 000000018002ee58     libappcrt:strtox.obj
 0004:00000e64       $pdata$4$??$parse_integer@KV?$c_string_character_source@D@__crt_strtox@@@__crt_strtox@@YAKQEAU__crt_locale_pointers@@V?$c_string_character_source@D@0@H_N@Z 000000018002ee64     libappcrt:strtox.obj
 0004:00000e70       $pdata$5$??$parse_integer@KV?$c_string_character_source@D@__crt_strtox@@@__crt_strtox@@YAKQEAU__crt_locale_pointers@@V?$c_string_character_source@D@0@H_N@Z 000000018002ee70     libappcrt:strtox.obj
 0004:00000e7c       $pdata$??$parse_integer@KV?$c_string_character_source@_W@__crt_strtox@@@__crt_strtox@@YAKQEAU__crt_locale_pointers@@V?$c_string_character_source@_W@0@H_N@Z 000000018002ee7c     libappcrt:strtox.obj
 0004:00000e88       $pdata$2$??$parse_integer@KV?$c_string_character_source@_W@__crt_strtox@@@__crt_strtox@@YAKQEAU__crt_locale_pointers@@V?$c_string_character_source@_W@0@H_N@Z 000000018002ee88     libappcrt:strtox.obj
 0004:00000e94       $pdata$4$??$parse_integer@KV?$c_string_character_source@_W@__crt_strtox@@@__crt_strtox@@YAKQEAU__crt_locale_pointers@@V?$c_string_character_source@_W@0@H_N@Z 000000018002ee94     libappcrt:strtox.obj
 0004:00000ea0       $pdata$5$??$parse_integer@KV?$c_string_character_source@_W@__crt_strtox@@@__crt_strtox@@YAKQEAU__crt_locale_pointers@@V?$c_string_character_source@_W@0@H_N@Z 000000018002eea0     libappcrt:strtox.obj
 0004:00000eac       $pdata$6$??$parse_integer@KV?$c_string_character_source@_W@__crt_strtox@@@__crt_strtox@@YAKQEAU__crt_locale_pointers@@V?$c_string_character_source@_W@0@H_N@Z 000000018002eeac     libappcrt:strtox.obj
 0004:00000eb8       $pdata$?unget@?$c_string_character_source@_W@__crt_strtox@@QEAAX_W@Z 000000018002eeb8     libappcrt:strtox.obj
 0004:00000ec4       $pdata$strtol              000000018002eec4     libappcrt:strtox.obj
 0004:00000ed0       $pdata$wcstol              000000018002eed0     libappcrt:strtox.obj
 0004:00000edc       $pdata$_mbtowc_l           000000018002eedc     libappcrt:mbtowc.obj
 0004:00000ee8       $pdata$_wctomb_s_l         000000018002eee8     libappcrt:wctomb.obj
 0004:00000ef4       $pdata$wctomb_s            000000018002eef4     libappcrt:wctomb.obj
 0004:00000f00       $pdata$__acrt_uninitialize_locale 000000018002ef00     libappcrt:wsetlocale.obj
 0004:00000f0c       $pdata$?construct_ptd@@YAXQEAU__acrt_ptd@@QEAU__crt_locale_data@@@Z 000000018002ef0c     libappcrt:per_thread_data.obj
 0004:00000f18       $pdata$?destroy_ptd@@YAXQEAU__acrt_ptd@@@Z 000000018002ef18     libappcrt:per_thread_data.obj
 0004:00000f24       $pdata$__acrt_freefls      000000018002ef24     libappcrt:per_thread_data.obj
 0004:00000f30       $pdata$__acrt_freeptd      000000018002ef30     libappcrt:per_thread_data.obj
 0004:00000f3c       $pdata$__acrt_getptd       000000018002ef3c     libappcrt:per_thread_data.obj
 0004:00000f48       $pdata$__acrt_getptd_noexit 000000018002ef48     libappcrt:per_thread_data.obj
 0004:00000f54       $pdata$__acrt_initialize_ptd 000000018002ef54     libappcrt:per_thread_data.obj
 0004:00000f60       $pdata$__acrt_uninitialize_ptd 000000018002ef60     libappcrt:per_thread_data.obj
 0004:00000f6c       $pdata$__acrt_update_locale_info 000000018002ef6c     libappcrt:locale_update.obj
 0004:00000f78       $pdata$__acrt_update_multibyte_info 000000018002ef78     libappcrt:locale_update.obj
 0004:00000f84       $pdata$?fp_format_a@@YAHQEBNPEAD_KQEAD2H_NIQEAU__crt_locale_pointers@@@Z 000000018002ef84     libappcrt:cvt.obj
 0004:00000f90       $pdata$?fp_format_e@@YAHQEBNQEAD_K12H_NIQEAU__crt_locale_pointers@@@Z 000000018002ef90     libappcrt:cvt.obj
 0004:00000f9c       $pdata$?fp_format_e_internal@@YAHQEAD_KH_NIQEAU_strflt@@2QEAU__crt_locale_pointers@@@Z 000000018002ef9c     libappcrt:cvt.obj
 0004:00000fa8       $pdata$?fp_format_f_internal@@YAHQEADHQEAU_strflt@@_NQEAU__crt_locale_pointers@@@Z 000000018002efa8     libappcrt:cvt.obj
 0004:00000fb4       $pdata$?fp_format_g@@YAHQEBNQEAD_K12H_NIQEAU__crt_locale_pointers@@@Z 000000018002efb4     libappcrt:cvt.obj
 0004:00000fc0       $pdata$?fp_format_nan_or_infinity@@YAHW4__acrt_fp_class@@_NPEAD_K1@Z 000000018002efc0     libappcrt:cvt.obj
 0004:00000fcc       $pdata$__acrt_fp_format    000000018002efcc     libappcrt:cvt.obj
 0004:00000fd8       $pdata$_fputwc_nolock      000000018002efd8     libappcrt:fputwc.obj
 0004:00000fe4       $pdata$_fileno             000000018002efe4     libappcrt:fileno.obj
 0004:00000ff0       $pdata$__acrt_stdio_begin_temporary_buffering_nolock 000000018002eff0     libappcrt:_sftbuf.obj
 0004:00000ffc       $pdata$__acrt_stdio_end_temporary_buffering_nolock 000000018002effc     libappcrt:_sftbuf.obj
 0004:00001008       $pdata$__acrt_initialize_rand_s 000000018002f008     libappcrt:rand_s.obj
 0004:00001014       $pdata$__acrt_uninitialize_rand_s 000000018002f014     libappcrt:rand_s.obj
 0004:00001020       $pdata$__acrt_initialize_heap 000000018002f020     libappcrt:heap_handle.obj
 0004:0000102c       $pdata$__acrt_initialize_command_line 000000018002f02c     libappcrt:argv_data.obj
 0004:00001038       $pdata$__acrt_execute_initializers 000000018002f038     libappcrt:shared_initialization.obj
 0004:00001044       $pdata$__acrt_execute_uninitializers 000000018002f044     libappcrt:shared_initialization.obj
 0004:00001050       $pdata$__acrt_has_user_matherr 000000018002f050     libappcrt:matherr.obj
 0004:0000105c       $pdata$__acrt_invoke_user_matherr 000000018002f05c     libappcrt:matherr.obj
 0004:00001068       $pdata$??$?RV<lambda_ac7773736e81d5faf930c0e5de6ba98a>@@AEAV<lambda_4909cec072cc63abf853bb7ad6f5d02b>@@V<lambda_0d0f2b3334941ad2ab7cbf11e6f8125e>@@@?$__crt_seh_guarded_call@X@@QEAAX$$QEAV<lambda_ac7773736e81d5faf930c0e5de6ba98a>@@AEAV<lambda_4909cec072cc63abf853bb7ad6f5d02b>@@$$QEAV<lambda_0d0f2b3334941ad2ab7cbf11e6f8125e>@@@Z 000000018002f068     libappcrt:mbctype.obj
 0004:00001074       $pdata$??R<lambda_4909cec072cc63abf853bb7ad6f5d02b>@@QEBAXXZ 000000018002f074     libappcrt:mbctype.obj
 0004:00001080       $pdata$?getSystemCP@@YAHH@Z 000000018002f080     libappcrt:mbctype.obj
 0004:0000108c       $pdata$?setSBCS@@YAXPEAU__crt_multibyte_data@@@Z 000000018002f08c     libappcrt:mbctype.obj
 0004:00001098       $pdata$?setSBUpLow@@YAXPEAU__crt_multibyte_data@@@Z 000000018002f098     libappcrt:mbctype.obj
 0004:000010a4       $pdata$?setmbcp_internal@@YAHH_N@Z 000000018002f0a4     libappcrt:mbctype.obj
 0004:000010b0       $pdata$__acrt_initialize_multibyte 000000018002f0b0     libappcrt:mbctype.obj
 0004:000010bc       $pdata$__acrt_update_thread_multibyte_data 000000018002f0bc     libappcrt:mbctype.obj
 0004:000010c8       $pdata$_setmbcp_nolock     000000018002f0c8     libappcrt:mbctype.obj
 0004:000010d4       $pdata$wcsncpy_s           000000018002f0d4     libappcrt:wcsncpy_s.obj
 0004:000010e0       $pdata$??$?RV<lambda_d17ac63b517632fdc8df1c31ffa76819>@@AEAV<lambda_b808959b143381ef4fbd2e2a6d0713c5>@@V<lambda_bc395a1919b252af978e71f59923aa8a>@@@?$__crt_seh_guarded_call@H@@QEAAH$$QEAV<lambda_d17ac63b517632fdc8df1c31ffa76819>@@AEAV<lambda_b808959b143381ef4fbd2e2a6d0713c5>@@$$QEAV<lambda_bc395a1919b252af978e71f59923aa8a>@@@Z 000000018002f0e0     libappcrt:commit.obj
 0004:000010ec       $pdata$_commit             000000018002f0ec     libappcrt:commit.obj
 0004:000010f8       $pdata$?write_double_translated_ansi_nolock@@YA?AUwrite_result@?A0x31df4182@@HQEBDI@Z 000000018002f0f8     libappcrt:write.obj
 0004:00001104       $pdata$?write_text_ansi_nolock@@YA?AUwrite_result@?A0x31df4182@@HQEBDI@Z 000000018002f104     libappcrt:write.obj
 0004:00001110       $pdata$?write_text_utf16le_nolock@@YA?AUwrite_result@?A0x31df4182@@HQEBDI@Z 000000018002f110     libappcrt:write.obj
 0004:0000111c       $pdata$?write_text_utf8_nolock@@YA?AUwrite_result@?A0x31df4182@@HQEBDI@Z 000000018002f11c     libappcrt:write.obj
 0004:00001128       $pdata$_write              000000018002f128     libappcrt:write.obj
 0004:00001134       $pdata$_write_nolock       000000018002f134     libappcrt:write.obj
 0004:00001140       $pdata$_msize              000000018002f140     libappcrt:msize.obj
 0004:0000114c       $pdata$_realloc_base       000000018002f14c     libappcrt:realloc_base.obj
 0004:00001158       $pdata$?GetTableIndexFromLocaleName@@YAHPEB_W@Z 000000018002f158     libappcrt:lcidtoname_downlevel.obj
 0004:00001164       $pdata$__acrt_DownlevelLocaleNameToLCID 000000018002f164     libappcrt:lcidtoname_downlevel.obj
 0004:00001170       $pdata$_fclose_nolock      000000018002f170     libappcrt:fclose.obj
 0004:0000117c       $pdata$fclose              000000018002f17c     libappcrt:fclose.obj
 0004:00001188       $pdata$__acrt_lowio_create_handle_array 000000018002f188     libappcrt:osfinfo.obj
 0004:00001194       $pdata$__acrt_lowio_destroy_handle_array 000000018002f194     libappcrt:osfinfo.obj
 0004:000011a0       $pdata$__acrt_lowio_ensure_fh_exists 000000018002f1a0     libappcrt:osfinfo.obj
 0004:000011ac       $pdata$_free_osfhnd        000000018002f1ac     libappcrt:osfinfo.obj
 0004:000011b8       $pdata$_get_osfhandle      000000018002f1b8     libappcrt:osfinfo.obj
 0004:000011c4       $pdata$__pctype_func       000000018002f1c4     libappcrt:ctype.obj
 0004:000011d0       $pdata$_isctype_l          000000018002f1d0     libappcrt:isctype.obj
 0004:000011dc       $pdata$_isleadbyte_l       000000018002f1dc     libappcrt:_wctype.obj
 0004:000011e8       $pdata$?__acrt_LCMapStringA_stat@@YAHPEAU__crt_locale_pointers@@PEB_WKPEBDHPEADHHH@Z 000000018002f1e8     libappcrt:LCMapStringA.obj
 0004:000011f4       $pdata$__acrt_LCMapStringA 000000018002f1f4     libappcrt:LCMapStringA.obj
 0004:00001200       $pdata$iswctype            000000018002f200     libappcrt:iswctype.obj
 0004:0000120c       $pdata$??$free_crt_array@D$06@@YAXAEAY06PEAD@Z 000000018002f20c     libappcrt:inittime.obj
 0004:0000120c       $pdata$??$free_crt_array@_W$06@@YAXAEAY06PEA_W@Z 000000018002f20c     libappcrt:inittime.obj
 0004:00001218       $pdata$??$free_crt_array@_W$0M@@@YAXAEAY0M@PEA_W@Z 000000018002f218     libappcrt:inittime.obj
 0004:00001218       $pdata$??$free_crt_array@D$0M@@@YAXAEAY0M@PEAD@Z 000000018002f218     libappcrt:inittime.obj
 0004:00001224       $pdata$__acrt_locale_free_time 000000018002f224     libappcrt:inittime.obj
 0004:00001230       $pdata$__acrt_locale_free_monetary 000000018002f230     libappcrt:initmon.obj
 0004:0000123c       $pdata$__acrt_locale_free_numeric 000000018002f23c     libappcrt:initnum.obj
 0004:00001248       $pdata$__acrt_GetStringTypeA 000000018002f248     libappcrt:GetStringTypeA.obj
 0004:00001254       $pdata$__acrt_free_locale  000000018002f254     libappcrt:locale_refcounting.obj
 0004:00001260       $pdata$__acrt_update_thread_locale_data 000000018002f260     libappcrt:locale_refcounting.obj
 0004:0000126c       $pdata$_updatetlocinfoEx_nolock 000000018002f26c     libappcrt:locale_refcounting.obj
 0004:00001278       $pdata$__acrt_fp_strflt_to_string 000000018002f278     libappcrt:_fptostr.obj
 0004:00001284       $pdata$__acrt_fltout       000000018002f284     libappcrt:cfout.obj
 0004:00001290       $pdata$1$__acrt_fltout     000000018002f290     libappcrt:cfout.obj
 0004:0000129c       $pdata$3$__acrt_fltout     000000018002f29c     libappcrt:cfout.obj
 0004:000012a8       $pdata$4$__acrt_fltout     000000018002f2a8     libappcrt:cfout.obj
 0004:000012b4       $pdata$memcpy_s            000000018002f2b4     libappcrt:cfout.obj
 0004:000012c0       $pdata$??$write_buffer_nolock@D@@YA_NDV__crt_stdio_stream@@@Z 000000018002f2c0     libappcrt:_flsbuf.obj
 0004:000012cc       $pdata$??$write_buffer_nolock@_W@@YA_N_WV__crt_stdio_stream@@@Z 000000018002f2cc     libappcrt:_flsbuf.obj
 0004:000012d8       $pdata$__acrt_stdio_flush_and_write_narrow_nolock 000000018002f2d8     libappcrt:_flsbuf.obj
 0004:000012e4       $pdata$__acrt_stdio_flush_and_write_wide_nolock 000000018002f2e4     libappcrt:_flsbuf.obj
 0004:000012f0       $pdata$_isatty             000000018002f2f0     libappcrt:isatty.obj
 0004:000012fc       $pdata$??$common_lseek@_J@@YA_JH_JH@Z 000000018002f2fc     libappcrt:lseek.obj
 0004:00001308       $pdata$??$common_lseek_nolock@_J@@YA_JH_JH@Z 000000018002f308     libappcrt:lseek.obj
 0004:00001314       $pdata$??$?RV<lambda_ad0d618f8fc7178cbb9b4cac8054c445>@@AEAV<lambda_1307520d4d13bf9de0f9297d24bd96f6>@@V<lambda_c928f5e71c1aebcb9e89b1d1406cd29d>@@@?$__crt_seh_guarded_call@H@@QEAAH$$QEAV<lambda_ad0d618f8fc7178cbb9b4cac8054c445>@@AEAV<lambda_1307520d4d13bf9de0f9297d24bd96f6>@@$$QEAV<lambda_c928f5e71c1aebcb9e89b1d1406cd29d>@@@Z 000000018002f314     libappcrt:close.obj
 0004:00001320       $pdata$_close              000000018002f320     libappcrt:close.obj
 0004:0000132c       $pdata$_close_nolock       000000018002f32c     libappcrt:close.obj
 0004:00001338       $pdata$fesetenv            000000018002f338     libappcrt:fesetenv.obj
 0004:00001344       $pdata$feholdexcept        000000018002f344     libappcrt:feholdexcept.obj
 0004:0000135c       $pdata$__acrt_stdio_allocate_buffer_nolock 000000018002f35c     libappcrt:_getbuf.obj
 0004:00001368       $pdata$fegetenv            000000018002f368     libappcrt:fegetenv.obj
 0004:00001374       $pdata$_getfpcontrolword   000000018002f374     libappcrt:_fenvutils.obj
 0004:00001380       $pdata$_getfpstatusword    000000018002f380     libappcrt:_fenvutils.obj
 0004:0000138c       $pdata$_setfpstatusword    000000018002f38c     libappcrt:_fenvutils.obj
 0004:00001398       $pdata$_clearfp            000000018002f398     libappcrt:ieee.obj
 0004:000013a4       $pdata$common_control87    000000018002f3a4     libappcrt:ieee.obj
 0004:000013b0       $pdata$_call_matherr       000000018002f3b0     libappcrt:libm_error.obj
 0004:000013bc       $pdata$_exception_enabled  000000018002f3bc     libappcrt:libm_error.obj
 0004:000013c8       $pdata$_handle_error       000000018002f3c8     libappcrt:libm_error.obj
 0004:000013d4       $pdata$__acrt_initialize_fma3 000000018002f3d4     libappcrt:fma3_available.obj
 0004:000013e0       $pdata$_log10_special      000000018002f3e0     libappcrt:log_special.obj
 0004:000013ec       $pdata$_log_special_common 000000018002f3ec     libappcrt:log_special.obj
 0004:00001404       $pdata$_raise_exc          000000018002f404     libappcrt:fpexcept.obj
 0004:00001410       $pdata$_raise_exc_ex       000000018002f410     libappcrt:fpexcept.obj
 0004:0000141c       $pdata$_set_errno_from_matherr 000000018002f41c     libappcrt:fpexcept.obj
 0004:00001428       $pdata$_clrfp              000000018002f428     libappcrt:fpctrl.obj
 0004:00001434       $pdata$_ctrlfp             000000018002f434     libappcrt:fpctrl.obj
 0004:00001440       $pdata$_set_statfp         000000018002f440     libappcrt:fpctrl.obj
 0004:0000144c       $pdata$_statfp             000000018002f44c     libappcrt:fpctrl.obj
 0004:00001458       $pdata$??$common_initialize_environment_nolock@D@@YAHXZ 000000018002f458     libdesktopcrt:environment_initialization.obj
 0004:00001464       $pdata$??$create_environment@D@@YAQEAPEADQEAD@Z 000000018002f464     libdesktopcrt:environment_initialization.obj
 0004:00001470       $pdata$??$free_environment@_W@@YAXQEAPEA_W@Z 000000018002f470     libdesktopcrt:environment_initialization.obj
 0004:00001470       $pdata$??$free_environment@D@@YAXQEAPEAD@Z 000000018002f470     libdesktopcrt:environment_initialization.obj
 0004:0000147c       $pdata$??$uninitialize_environment_internal@D@@YAXAEAPEAPEAD@Z 000000018002f47c     libdesktopcrt:environment_initialization.obj
 0004:00001488       $pdata$??$uninitialize_environment_internal@_W@@YAXAEAPEAPEA_W@Z 000000018002f488     libdesktopcrt:environment_initialization.obj
 0004:00001494       $pdata$__dcrt_uninitialize_environments_nolock 000000018002f494     libdesktopcrt:environment_initialization.obj
 0004:000014a0       $pdata$__dcrt_initialize   000000018002f4a0     libdesktopcrt:initialization.obj
 0004:000014ac       $pdata$__dcrt_uninitialize 000000018002f4ac     libdesktopcrt:initialization.obj
 0004:000014b8       $pdata$__dcrt_uninitialize_critical 000000018002f4b8     libdesktopcrt:initialization.obj
 0004:000014c4       $pdata$_putwch_nolock      000000018002f4c4     libdesktopcrt:putwch.obj
 0004:000014d0       $pdata$__dcrt_get_narrow_environment_from_os 000000018002f4d0     libdesktopcrt:get_environment_from_os.obj
 0004:000014dc       $pdata$__dcrt_getptd_noexit 000000018002f4dc     libdesktopcrt:per_thread_data.obj
 0004:000014e8       $pdata$__dcrt_initialize_ptd 000000018002f4e8     libdesktopcrt:per_thread_data.obj
 0004:000014f4       $pdata$__dcrt_uninitialize_ptd 000000018002f4f4     libdesktopcrt:per_thread_data.obj
 0004:00001500       $pdata$__dcrt_lowio_initialize_console_output 000000018002f500     libdesktopcrt:initcon.obj
 0004:0000150c       $pdata$__dcrt_terminate_console_output 000000018002f50c     libdesktopcrt:initcon.obj
 0004:00001518       $pdata$?DloadAcquireSectionWriteAccess@@YAXXZ 000000018002f518     DelayImp:delayhlp.obj
 0004:00001524       $pdata$?DloadGetSRWLockFunctionPointers@@YAEXZ 000000018002f524     DelayImp:delayhlp.obj
 0004:00001530       $pdata$?DloadMakePermanentImageCommit@@YAXPEAX_K@Z 000000018002f530     DelayImp:delayhlp.obj
 0004:0000153c       $pdata$?DloadObtainSection@@YAPEAXPEAK0@Z 000000018002f53c     DelayImp:delayhlp.obj
 0004:00001548       $pdata$?DloadProtectSection@@YAXKPEAK@Z 000000018002f548     DelayImp:delayhlp.obj
 0004:00001554       $pdata$?DloadReleaseSectionWriteAccess@@YAXXZ 000000018002f554     DelayImp:delayhlp.obj
 0004:00001560       $pdata$__delayLoadHelper2  000000018002f560     DelayImp:delayhlp.obj
 0004:0000156c       $pdata$_IsNonwritableInCurrentImage 000000018002f56c     LIBCMT:pesect.obj
 0004:00001578       $pdata$__GSHandlerCheck    000000018002f578     LIBCMT:gshandler.obj
 0004:00001584       $pdata$__GSHandlerCheckCommon 000000018002f584     LIBCMT:gshandler.obj
 0004:000015b4       $pdata$strrchr             000000018002f5b4     libvcruntime:strrchr.obj
 0004:000015cc       $pdata$?fin$0@?0??dllmain_crt_process_attach@@YAHQEAUHINSTANCE__@@QEAX@Z@4HA 000000018002f5cc     LIBCMT:dll_dllmain.obj
 0004:000015d8       $pdata$?fin$0@?0??dllmain_crt_process_detach@@YAH_N@Z@4HA 000000018002f5d8     LIBCMT:dll_dllmain.obj
 0004:000015e4       $pdata$?filt$0@?0??dllmain_dispatch@@YAHQEAUHINSTANCE__@@KQEAX@Z@4HA 000000018002f5e4     LIBCMT:dll_dllmain.obj
 0004:000015f0       $pdata$__scrt_is_nonwritable_in_current_image$filt$0 000000018002f5f0     LIBCMT:utility.obj
 0004:000015fc       $pdata$?fin$0@?0??common_onexit@@YAP6AHXZQEAU_onexit_table_t@@Q6AHXZ@Z@4HA 000000018002f5fc     libappcrt:onexit.obj
 0004:00001608       $pdata$_query_new_handler$fin$0 000000018002f608     libappcrt:new_handler.obj
 0004:00001614       $pdata$?filt$0@?0??common_exit@@YAXHW4_crt_exit_cleanup_mode@@W4_crt_exit_return_mode@@@Z@4HA 000000018002f614     libappcrt:exit.obj
 0004:00001620       $pdata$?fin$1@?0??common_exit@@YAXHW4_crt_exit_cleanup_mode@@W4_crt_exit_return_mode@@@Z@4HA 000000018002f620     libappcrt:exit.obj
 0004:0000162c       $pdata$common_flush_all$fin$0 000000018002f62c     libappcrt:fflush.obj
 0004:00001638       $pdata$common_flush_all$fin$1 000000018002f638     libappcrt:fflush.obj
 0004:00001644       $pdata$fclose$fin$0        000000018002f644     libappcrt:fflush.obj
 0004:00001644       $pdata$fflush$fin$0        000000018002f644     libappcrt:fflush.obj
 0004:00001650       $pdata$?fin$0@?0???$?RV<lambda_375f2059ece04f1a3491234976883daf>@@AEAV<lambda_8b97db1b1a74c9d5d2f05201ee762dcb>@@V<lambda_d91a30588a32db60f761b18b0c09ab11>@@@?$__crt_seh_guarded_call@H@@QEAAH$$QEAV<lambda_375f2059ece04f1a3491234976883daf>@@AEAV<lambda_8b97db1b1a74c9d5d2f05201ee762dcb>@@$$QEAV<lambda_d91a30588a32db60f761b18b0c09ab11>@@@Z@4HA 000000018002f650     libappcrt:setvbuf.obj
 0004:00001650       $pdata$?fin$0@?0???$?RV<lambda_748170f0745e8ff1df7bb43bcbf3b33d>@@AEAV<lambda_11f1b9fd45bbe0eb9ff4d0acb58976bf>@@V<lambda_17683df6366aaadc43f3d402e9bdd393>@@@?$__crt_seh_guarded_call@H@@QEAAH$$QEAV<lambda_748170f0745e8ff1df7bb43bcbf3b33d>@@AEAV<lambda_11f1b9fd45bbe0eb9ff4d0acb58976bf>@@$$QEAV<lambda_17683df6366aaadc43f3d402e9bdd393>@@@Z@4HA 000000018002f650     libappcrt:setvbuf.obj
 0004:00001650       $pdata$?fin$0@?0???$?RV<lambda_f44018d659a65f962de91447066bfbb0>@@AEAV<lambda_c2e2a780365980b01940295d90109018>@@V<lambda_7f98fe85b6c52e814278db065628b656>@@@?$__crt_seh_guarded_call@H@@QEAAH$$QEAV<lambda_f44018d659a65f962de91447066bfbb0>@@AEAV<lambda_c2e2a780365980b01940295d90109018>@@$$QEAV<lambda_7f98fe85b6c52e814278db065628b656>@@@Z@4HA 000000018002f650     libappcrt:setvbuf.obj
 0004:0000165c       $pdata$__acrt_get_sigabrt_handler$fin$0 000000018002f65c     libappcrt:signal.obj
 0004:00001668       $pdata$raise$fin$0         000000018002f668     libappcrt:signal.obj
 0004:00001674       $pdata$_fcloseall$fin$0    000000018002f674     libappcrt:closeall.obj
 0004:00001680       $pdata$__acrt_initialize_lowio$fin$0 000000018002f680     libappcrt:ioinit.obj
 0004:0000168c       $pdata$__acrt_update_thread_locale_data$fin$0 000000018002f68c     libappcrt:wsetlocale.obj
 0004:0000168c       $pdata$__acrt_uninitialize_locale$fin$0 000000018002f68c     libappcrt:wsetlocale.obj
 0004:00001698       $pdata$?fin$1@?0??destroy_ptd@@YAXQEAU__acrt_ptd@@@Z@4HA 000000018002f698     libappcrt:per_thread_data.obj
 0004:00001698       $pdata$?fin$1@?0??construct_ptd@@YAXQEAU__acrt_ptd@@QEAU__crt_locale_data@@@Z@4HA 000000018002f698     libappcrt:per_thread_data.obj
 0004:000016a4       $pdata$?fin$0@?0??destroy_ptd@@YAXQEAU__acrt_ptd@@@Z@4HA 000000018002f6a4     libappcrt:per_thread_data.obj
 0004:000016a4       $pdata$?fin$0@?0??construct_ptd@@YAXQEAU__acrt_ptd@@QEAU__crt_locale_data@@@Z@4HA 000000018002f6a4     libappcrt:per_thread_data.obj
 0004:000016b0       $pdata$?fin$0@?0???$?RV<lambda_ac7773736e81d5faf930c0e5de6ba98a>@@AEAV<lambda_4909cec072cc63abf853bb7ad6f5d02b>@@V<lambda_0d0f2b3334941ad2ab7cbf11e6f8125e>@@@?$__crt_seh_guarded_call@X@@QEAAX$$QEAV<lambda_ac7773736e81d5faf930c0e5de6ba98a>@@AEAV<lambda_4909cec072cc63abf853bb7ad6f5d02b>@@$$QEAV<lambda_0d0f2b3334941ad2ab7cbf11e6f8125e>@@@Z@4HA 000000018002f6b0     libappcrt:mbctype.obj
 0004:000016bc       $pdata$__acrt_update_thread_multibyte_data$fin$0 000000018002f6bc     libappcrt:mbctype.obj
 0004:000016c8       $pdata$?fin$0@?0???$common_lseek@_J@@YA_JH_JH@Z@4HA 000000018002f6c8     libappcrt:write.obj
 0004:000016c8       $pdata$_write$fin$0        000000018002f6c8     libappcrt:write.obj
 0004:000016d4       $pdata$__acrt_lowio_ensure_fh_exists$fin$0 000000018002f6d4     libappcrt:osfinfo.obj
 0004:000016e0       $pdata$?fin$0@?0???$?RV<lambda_ad0d618f8fc7178cbb9b4cac8054c445>@@AEAV<lambda_1307520d4d13bf9de0f9297d24bd96f6>@@V<lambda_c928f5e71c1aebcb9e89b1d1406cd29d>@@@?$__crt_seh_guarded_call@H@@QEAAH$$QEAV<lambda_ad0d618f8fc7178cbb9b4cac8054c445>@@AEAV<lambda_1307520d4d13bf9de0f9297d24bd96f6>@@$$QEAV<lambda_c928f5e71c1aebcb9e89b1d1406cd29d>@@@Z@4HA 000000018002f6e0     libappcrt:close.obj
 0004:000016e0       $pdata$?fin$0@?0???$?RV<lambda_d17ac63b517632fdc8df1c31ffa76819>@@AEAV<lambda_b808959b143381ef4fbd2e2a6d0713c5>@@V<lambda_bc395a1919b252af978e71f59923aa8a>@@@?$__crt_seh_guarded_call@H@@QEAAH$$QEAV<lambda_d17ac63b517632fdc8df1c31ffa76819>@@AEAV<lambda_b808959b143381ef4fbd2e2a6d0713c5>@@$$QEAV<lambda_bc395a1919b252af978e71f59923aa8a>@@@Z@4HA 000000018002f6e0     libappcrt:close.obj
 0004:000016ec       $pdata$_ctrlfp$filt$0      000000018002f6ec     libappcrt:fpctrl.obj
 0004:000016ec       $pdata$common_control87$filt$0 000000018002f6ec     libappcrt:fpctrl.obj
 0004:000016f8       $pdata$_IsNonwritableInCurrentImage$filt$0 000000018002f6f8     LIBCMT:pesect.obj
 0005:00000060       $R000000                   0000000180030060     * linker generated manifest res *

 Exports

  ordinal    name

        1    _register_kerberos_
